builtin.hexplug:_ZN10__cxxabiv117__pbase_type_infoD0Ev
builtin.hexplug:_ZN10__cxxabiv117__pbase_type_infoD1Ev
builtin.hexplug:_ZN10__cxxabiv117__pbase_type_infoD2Ev
builtin.hexplug:_ZN10__cxxabiv119__pointer_type_infoD0Ev
builtin.hexplug:_ZN10__cxxabiv119__pointer_type_infoD1Ev
builtin.hexplug:_ZN10__cxxabiv119__pointer_type_infoD2Ev
builtin.hexplug:_ZN10__cxxabiv120__function_type_infoD0Ev
builtin.hexplug:_ZN10__cxxabiv120__function_type_infoD1Ev
builtin.hexplug:_ZN10__cxxabiv120__function_type_infoD2Ev
builtin.hexplug:_ZN10__cxxabiv123__fundamental_type_infoD0Ev
builtin.hexplug:_ZN10__cxxabiv123__fundamental_type_infoD1Ev
builtin.hexplug:_ZN10__cxxabiv123__fundamental_type_infoD2Ev
builtin.hexplug:_ZN10__cxxabiv129__pointer_to_member_type_infoD0Ev
builtin.hexplug:_ZN10__cxxabiv129__pointer_to_member_type_infoD1Ev
builtin.hexplug:_ZN10__cxxabiv129__pointer_to_member_type_infoD2Ev
builtin.hexplug:_ZN3hex10toOperatorENSt7__cxx1112basic_stringIcSt11char_traitsIcESaIcEEE
builtin.hexplug:_ZN3hex13MathEvaluator10parseInputEPKc
builtin.hexplug:_ZN3hex13MathEvaluator11setFunctionENSt7__cxx1112basic_stringIcSt11char_traitsIcESaIcEEESt8functionIFSt8optionalIeESt6vectorIeSaIeEEEEmm
builtin.hexplug:_ZN3hex13MathEvaluator11setVariableENSt7__cxx1112basic_stringIcSt11char_traitsIcESaIcEEEe
builtin.hexplug:_ZN3hex13MathEvaluator25registerStandardFunctionsEv
builtin.hexplug:_ZN3hex13MathEvaluator25registerStandardVariablesEv
builtin.hexplug:_ZN3hex13MathEvaluator8evaluateENSt7__cxx1112basic_stringIcSt11char_traitsIcESaIcEEE
builtin.hexplug:_ZN3hex13MathEvaluator8evaluateESt5queueINS_5TokenESt5dequeIS2_SaIS2_EEE
builtin.hexplug:_ZN3hex13MathEvaluator9toPostfixESt5queueINS_5TokenESt5dequeIS2_SaIS2_EEE
builtin.hexplug:_ZN3hex17comparePrecedenceERKNS_8OperatorES2_
builtin.hexplug:_ZN3hex17isLeftAssociativeENS_8OperatorE
builtin.hexplug:_ZN3hex6plugin7builtin14addFooterItemsEv
builtin.hexplug:_ZN3hex6plugin7builtin16registerSettingsEv
builtin.hexplug:_ZN3hex6plugin7builtin19registerToolEntriesEv
builtin.hexplug:_ZN3hex6plugin7builtin20registerLanguageDeDEEv
builtin.hexplug:_ZN3hex6plugin7builtin20registerLanguageEnUSEv
builtin.hexplug:_ZN3hex6plugin7builtin20registerLanguageItITEv
builtin.hexplug:_ZN3hex6plugin7builtin26registerDataProcessorNodesEv
builtin.hexplug:_ZN3hex6plugin7builtin28registerDataInspectorEntriesEv
builtin.hexplug:_ZN3hex6plugin7builtin30registerCommandPaletteCommandsEv
builtin.hexplug:_ZN3hex6plugin7builtin32registerPatternLanguageFunctionsEv
builtin.hexplug:_ZN3hex6plugin7builtin8internal13getPluginNameEv
builtin.hexplug:_ZN3hex6plugin7builtin8internal15getPluginAuthorEv
builtin.hexplug:_ZN3hex6plugin7builtin8internal16initializePluginEv
builtin.hexplug:_ZN3hex6plugin7builtin8internal20getPluginDescriptionEv
builtin.hexplug:_ZN4llvm11ms_demangle9Demangler10copyStringENS_16itanium_demangle10StringViewE
builtin.hexplug:_ZN4llvm11ms_demangle9Demangler12demangleTypeERNS_16itanium_demangle10StringViewENS0_19QualifierMangleModeE
builtin.hexplug:_ZN4llvm11ms_demangle9Demangler14demangleNumberERNS_16itanium_demangle10StringViewE
builtin.hexplug:_ZN4llvm11ms_demangle9Demangler14demangleSignedERNS_16itanium_demangle10StringViewE
builtin.hexplug:_ZN4llvm11ms_demangle9Demangler14memorizeStringENS_16itanium_demangle10StringViewE
builtin.hexplug:_ZN4llvm11ms_demangle9Demangler15demangleMD5NameERNS_16itanium_demangle10StringViewE
builtin.hexplug:_ZN4llvm11ms_demangle9Demangler16demangleUnsignedERNS_16itanium_demangle10StringViewE
builtin.hexplug:_ZN4llvm11ms_demangle9Demangler17demangleArrayTypeERNS_16itanium_demangle10StringViewE
builtin.hexplug:_ZN4llvm11ms_demangle9Demangler17demangleClassTypeERNS_16itanium_demangle10StringViewE
builtin.hexplug:_ZN4llvm11ms_demangle9Demangler18demangleCustomTypeERNS_16itanium_demangle10StringViewE
builtin.hexplug:_ZN4llvm11ms_demangle9Demangler18demangleDeclaratorERNS_16itanium_demangle10StringViewE
builtin.hexplug:_ZN4llvm11ms_demangle9Demangler18demangleQualifiersERNS_16itanium_demangle10StringViewE
builtin.hexplug:_ZN4llvm11ms_demangle9Demangler18demangleSimpleNameERNS_16itanium_demangle10StringViewEb
builtin.hexplug:_ZN4llvm11ms_demangle9Demangler18dumpBackReferencesEv
builtin.hexplug:_ZN4llvm11ms_demangle9Demangler18memorizeIdentifierEPNS0_14IdentifierNodeE
builtin.hexplug:_ZN4llvm11ms_demangle9Demangler18parseTagUniqueNameERNS_16itanium_demangle10StringViewE
builtin.hexplug:_ZN4llvm11ms_demangle9Demangler19demangleBackRefNameERNS_16itanium_demangle10StringViewE
builtin.hexplug:_ZN4llvm11ms_demangle9Demangler19demangleCharLiteralERNS_16itanium_demangle10StringViewE
builtin.hexplug:_ZN4llvm11ms_demangle9Demangler19demanglePointerTypeERNS_16itanium_demangle10StringViewE
builtin.hexplug:_ZN4llvm11ms_demangle9Demangler20demangleFunctionTypeERNS_16itanium_demangle10StringViewEb
builtin.hexplug:_ZN4llvm11ms_demangle9Demangler20demangleInitFiniStubERNS_16itanium_demangle10StringViewEb
builtin.hexplug:_ZN4llvm11ms_demangle9Demangler20demangleSimpleStringERNS_16itanium_demangle10StringViewEb
builtin.hexplug:_ZN4llvm11ms_demangle9Demangler20demangleTypeinfoNameERNS_16itanium_demangle10StringViewE
builtin.hexplug:_ZN4llvm11ms_demangle9Demangler20demangleWcharLiteralERNS_16itanium_demangle10StringViewE
builtin.hexplug:_ZN4llvm11ms_demangle9Demangler21demangleEncodedSymbolERNS_16itanium_demangle10StringViewEPNS0_17QualifiedNameNodeE
builtin.hexplug:_ZN4llvm11ms_demangle9Demangler21demangleFunctionClassERNS_16itanium_demangle10StringViewE
builtin.hexplug:_ZN4llvm11ms_demangle9Demangler21demanglePrimitiveTypeERNS_16itanium_demangle10StringViewE
builtin.hexplug:_ZN4llvm11ms_demangle9Demangler21demangleStringLiteralERNS_16itanium_demangle10StringViewE
builtin.hexplug:_ZN4llvm11ms_demangle9Demangler22demangleNameScopeChainERNS_16itanium_demangle10StringViewEPNS0_14IdentifierNodeE
builtin.hexplug:_ZN4llvm11ms_demangle9Demangler22demangleNameScopePieceERNS_16itanium_demangle10StringViewE
builtin.hexplug:_ZN4llvm11ms_demangle9Demangler22demangleVcallThunkNodeERNS_16itanium_demangle10StringViewE
builtin.hexplug:_ZN4llvm11ms_demangle9Demangler23demangleUntypedVariableERNS0_14ArenaAllocatorERNS_16itanium_demangle10StringViewES5_
builtin.hexplug:_ZN4llvm11ms_demangle9Demangler24demangleFunctionEncodingERNS_16itanium_demangle10StringViewE
builtin.hexplug:_ZN4llvm11ms_demangle9Demangler24demangleLocalStaticGuardERNS_16itanium_demangle10StringViewEb
builtin.hexplug:_ZN4llvm11ms_demangle9Demangler24demangleSpecialIntrinsicERNS_16itanium_demangle10StringViewE
builtin.hexplug:_ZN4llvm11ms_demangle9Demangler24demangleVariableEncodingERNS_16itanium_demangle10StringViewENS0_12StorageClassE
builtin.hexplug:_ZN4llvm11ms_demangle9Demangler25demangleCallingConventionERNS_16itanium_demangle10StringViewE
builtin.hexplug:_ZN4llvm11ms_demangle9Demangler25demangleMemberPointerTypeERNS_16itanium_demangle10StringViewE
builtin.hexplug:_ZN4llvm11ms_demangle9Demangler26demangleStructorIdentifierERNS_16itanium_demangle10StringViewEb
builtin.hexplug:_ZN4llvm11ms_demangle9Demangler26demangleThrowSpecificationERNS_16itanium_demangle10StringViewE
builtin.hexplug:_ZN4llvm11ms_demangle9Demangler27demangleUnqualifiedTypeNameERNS_16itanium_demangle10StringViewEb
builtin.hexplug:_ZN4llvm11ms_demangle9Demangler28demanglePointerExtQualifiersERNS_16itanium_demangle10StringViewE
builtin.hexplug:_ZN4llvm11ms_demangle9Demangler28demangleVariableStorageClassERNS_16itanium_demangle10StringViewE
builtin.hexplug:_ZN4llvm11ms_demangle9Demangler29demangleFunctionParameterListERNS_16itanium_demangle10StringViewERb
builtin.hexplug:_ZN4llvm11ms_demangle9Demangler29demangleTemplateParameterListERNS_16itanium_demangle10StringViewE
builtin.hexplug:_ZN4llvm11ms_demangle9Demangler29demangleUnqualifiedSymbolNameERNS_16itanium_demangle10StringViewENS0_19NameBackrefBehaviorE
builtin.hexplug:_ZN4llvm11ms_demangle9Demangler30demangleAnonymousNamespaceNameERNS_16itanium_demangle10StringViewE
builtin.hexplug:_ZN4llvm11ms_demangle9Demangler30demangleFullyQualifiedTypeNameERNS_16itanium_demangle10StringViewE
builtin.hexplug:_ZN4llvm11ms_demangle9Demangler30demangleFunctionIdentifierCodeERNS_16itanium_demangle10StringViewE
builtin.hexplug:_ZN4llvm11ms_demangle9Demangler30demangleFunctionIdentifierCodeERNS_16itanium_demangle10StringViewENS0_27FunctionIdentifierCodeGroupE
builtin.hexplug:_ZN4llvm11ms_demangle9Demangler30demangleLocallyScopedNamePieceERNS_16itanium_demangle10StringViewE
builtin.hexplug:_ZN4llvm11ms_demangle9Demangler30demangleSpecialTableSymbolNodeERNS_16itanium_demangle10StringViewENS0_20SpecialIntrinsicKindE
builtin.hexplug:_ZN4llvm11ms_demangle9Demangler30translateIntrinsicFunctionCodeEcNS0_27FunctionIdentifierCodeGroupE
builtin.hexplug:_ZN4llvm11ms_demangle9Demangler32demangleFullyQualifiedSymbolNameERNS_16itanium_demangle10StringViewE
builtin.hexplug:_ZN4llvm11ms_demangle9Demangler33demangleLiteralOperatorIdentifierERNS_16itanium_demangle10StringViewE
builtin.hexplug:_ZN4llvm11ms_demangle9Demangler33demangleTemplateInstantiationNameERNS_16itanium_demangle10StringViewENS0_19NameBackrefBehaviorE
builtin.hexplug:_ZN4llvm11ms_demangle9Demangler35demangleRttiBaseClassDescriptorNodeERNS0_14ArenaAllocatorERNS_16itanium_demangle10StringViewE
builtin.hexplug:_ZN4llvm11ms_demangle9Demangler36demangleConversionOperatorIdentifierERNS_16itanium_demangle10StringViewE
builtin.hexplug:_ZN4llvm11ms_demangle9Demangler5parseERNS_16itanium_demangle10StringViewE
builtin.hexplug:_ZN4llvm15itaniumDemangleEPKcPcPmPi
builtin.hexplug:_ZN4llvm16itanium_demangle19parse_discriminatorEPKcS2_
builtin.hexplug:_ZN4llvm17microsoftDemangleEPKcPmPcS2_PiNS_15MSDemangleFlagsE
builtin.hexplug:_ZN4llvm23ItaniumPartialDemangler15partialDemangleEPKc
builtin.hexplug:_ZN4llvm23ItaniumPartialDemanglerC1EOS0_
builtin.hexplug:_ZN4llvm23ItaniumPartialDemanglerC1Ev
builtin.hexplug:_ZN4llvm23ItaniumPartialDemanglerC2EOS0_
builtin.hexplug:_ZN4llvm23ItaniumPartialDemanglerC2Ev
builtin.hexplug:_ZN4llvm23ItaniumPartialDemanglerD1Ev
builtin.hexplug:_ZN4llvm23ItaniumPartialDemanglerD2Ev
builtin.hexplug:_ZN4llvm23ItaniumPartialDemangleraSEOS0_
builtin.hexplug:_ZN4llvm8demangleERKNSt7__cxx1112basic_stringIcSt11char_traitsIcESaIcEEE
builtin.hexplug:_ZNK10__cxxabiv117__pbase_type_info10__do_catchEPKSt9type_infoPPvj
builtin.hexplug:_ZNK10__cxxabiv119__pointer_type_info14__is_pointer_pEv
builtin.hexplug:_ZNK10__cxxabiv119__pointer_type_info15__pointer_catchEPKNS_17__pbase_type_infoEPPvj
builtin.hexplug:_ZNK10__cxxabiv120__function_type_info15__is_function_pEv
builtin.hexplug:_ZNK10__cxxabiv129__pointer_to_member_type_info15__pointer_catchEPKNS_17__pbase_type_infoEPPvj
builtin.hexplug:_ZNK4llvm11ms_demangle10SymbolNode6outputERNS_16itanium_demangle12OutputStreamENS0_11OutputFlagsE
builtin.hexplug:_ZNK4llvm11ms_demangle11TagTypeNode10outputPostERNS_16itanium_demangle12OutputStreamENS0_11OutputFlagsE
builtin.hexplug:_ZNK4llvm11ms_demangle11TagTypeNode9outputPreERNS_16itanium_demangle12OutputStreamENS0_11OutputFlagsE
builtin.hexplug:_ZNK4llvm11ms_demangle13ArrayTypeNode10outputPostERNS_16itanium_demangle12OutputStreamENS0_11OutputFlagsE
builtin.hexplug:_ZNK4llvm11ms_demangle13ArrayTypeNode18outputOneDimensionERNS_16itanium_demangle12OutputStreamENS0_11OutputFlagsEPNS0_4NodeE
builtin.hexplug:_ZNK4llvm11ms_demangle13ArrayTypeNode20outputDimensionsImplERNS_16itanium_demangle12OutputStreamENS0_11OutputFlagsE
builtin.hexplug:_ZNK4llvm11ms_demangle13ArrayTypeNode9outputPreERNS_16itanium_demangle12OutputStreamENS0_11OutputFlagsE
builtin.hexplug:_ZNK4llvm11ms_demangle13NodeArrayNode6outputERNS_16itanium_demangle12OutputStreamENS0_11OutputFlagsE
builtin.hexplug:_ZNK4llvm11ms_demangle13NodeArrayNode6outputERNS_16itanium_demangle12OutputStreamENS0_11OutputFlagsENS2_10StringViewE
builtin.hexplug:_ZNK4llvm11ms_demangle14CustomTypeNode10outputPostERNS_16itanium_demangle12OutputStreamENS0_11OutputFlagsE
builtin.hexplug:_ZNK4llvm11ms_demangle14CustomTypeNode9outputPreERNS_16itanium_demangle12OutputStreamENS0_11OutputFlagsE
builtin.hexplug:_ZNK4llvm11ms_demangle14IdentifierNode24outputTemplateParametersERNS_16itanium_demangle12OutputStreamENS0_11OutputFlagsE
builtin.hexplug:_ZNK4llvm11ms_demangle15PointerTypeNode10outputPostERNS_16itanium_demangle12OutputStreamENS0_11OutputFlagsE
builtin.hexplug:_ZNK4llvm11ms_demangle15PointerTypeNode9outputPreERNS_16itanium_demangle12OutputStreamENS0_11OutputFlagsE
builtin.hexplug:_ZNK4llvm11ms_demangle17PrimitiveTypeNode9outputPreERNS_16itanium_demangle12OutputStreamENS0_11OutputFlagsE
builtin.hexplug:_ZNK4llvm11ms_demangle17QualifiedNameNode6outputERNS_16itanium_demangle12OutputStreamENS0_11OutputFlagsE
builtin.hexplug:_ZNK4llvm11ms_demangle18FunctionSymbolNode6outputERNS_16itanium_demangle12OutputStreamENS0_11OutputFlagsE
builtin.hexplug:_ZNK4llvm11ms_demangle18IntegerLiteralNode6outputERNS_16itanium_demangle12OutputStreamENS0_11OutputFlagsE
builtin.hexplug:_ZNK4llvm11ms_demangle18ThunkSignatureNode10outputPostERNS_16itanium_demangle12OutputStreamENS0_11OutputFlagsE
builtin.hexplug:_ZNK4llvm11ms_demangle18ThunkSignatureNode9outputPreERNS_16itanium_demangle12OutputStreamENS0_11OutputFlagsE
builtin.hexplug:_ZNK4llvm11ms_demangle18VariableSymbolNode6outputERNS_16itanium_demangle12OutputStreamENS0_11OutputFlagsE
builtin.hexplug:_ZNK4llvm11ms_demangle19NamedIdentifierNode6outputERNS_16itanium_demangle12OutputStreamENS0_11OutputFlagsE
builtin.hexplug:_ZNK4llvm11ms_demangle21FunctionSignatureNode10outputPostERNS_16itanium_demangle12OutputStreamENS0_11OutputFlagsE
builtin.hexplug:_ZNK4llvm11ms_demangle21FunctionSignatureNode9outputPreERNS_16itanium_demangle12OutputStreamENS0_11OutputFlagsE
builtin.hexplug:_ZNK4llvm11ms_demangle22SpecialTableSymbolNode6outputERNS_16itanium_demangle12OutputStreamENS0_11OutputFlagsE
builtin.hexplug:_ZNK4llvm11ms_demangle22StructorIdentifierNode6outputERNS_16itanium_demangle12OutputStreamENS0_11OutputFlagsE
builtin.hexplug:_ZNK4llvm11ms_demangle24EncodedStringLiteralNode6outputERNS_16itanium_demangle12OutputStreamENS0_11OutputFlagsE
builtin.hexplug:_ZNK4llvm11ms_demangle24VcallThunkIdentifierNode6outputERNS_16itanium_demangle12OutputStreamENS0_11OutputFlagsE
builtin.hexplug:_ZNK4llvm11ms_demangle27RttiBaseClassDescriptorNode6outputERNS_16itanium_demangle12OutputStreamENS0_11OutputFlagsE
builtin.hexplug:_ZNK4llvm11ms_demangle28LocalStaticGuardVariableNode6outputERNS_16itanium_demangle12OutputStreamENS0_11OutputFlagsE
builtin.hexplug:_ZNK4llvm11ms_demangle29DynamicStructorIdentifierNode6outputERNS_16itanium_demangle12OutputStreamENS0_11OutputFlagsE
builtin.hexplug:_ZNK4llvm11ms_demangle29LiteralOperatorIdentifierNode6outputERNS_16itanium_demangle12OutputStreamENS0_11OutputFlagsE
builtin.hexplug:_ZNK4llvm11ms_demangle30LocalStaticGuardIdentifierNode6outputERNS_16itanium_demangle12OutputStreamENS0_11OutputFlagsE
builtin.hexplug:_ZNK4llvm11ms_demangle30TemplateParameterReferenceNode6outputERNS_16itanium_demangle12OutputStreamENS0_11OutputFlagsE
builtin.hexplug:_ZNK4llvm11ms_demangle31IntrinsicFunctionIdentifierNode6outputERNS_16itanium_demangle12OutputStreamENS0_11OutputFlagsE
builtin.hexplug:_ZNK4llvm11ms_demangle32ConversionOperatorIdentifierNode6outputERNS_16itanium_demangle12OutputStreamENS0_11OutputFlagsE
builtin.hexplug:_ZNK4llvm11ms_demangle4Node8toStringB5cxx11ENS0_11OutputFlagsE
builtin.hexplug:_ZNK4llvm23ItaniumPartialDemangler10isFunctionEv
builtin.hexplug:_ZNK4llvm23ItaniumPartialDemangler12isCtorOrDtorEv
builtin.hexplug:_ZNK4llvm23ItaniumPartialDemangler13isSpecialNameEv
builtin.hexplug:_ZNK4llvm23ItaniumPartialDemangler14finishDemangleEPcPm
builtin.hexplug:_ZNK4llvm23ItaniumPartialDemangler15getFunctionNameEPcPm
builtin.hexplug:_ZNK4llvm23ItaniumPartialDemangler19getFunctionBaseNameEPcPm
builtin.hexplug:_ZNK4llvm23ItaniumPartialDemangler21getFunctionParametersEPcPm
builtin.hexplug:_ZNK4llvm23ItaniumPartialDemangler21getFunctionReturnTypeEPcPm
builtin.hexplug:_ZNK4llvm23ItaniumPartialDemangler21hasFunctionQualifiersEv
builtin.hexplug:_ZNK4llvm23ItaniumPartialDemangler26getFunctionDeclContextNameEPcPm
builtin.hexplug:_ZNK4llvm23ItaniumPartialDemangler6isDataEv
builtin.hexplug:_ZNSt11regex_errorC1ENSt15regex_constants10error_typeE
builtin.hexplug:_ZNSt11regex_errorC2ENSt15regex_constants10error_typeE
builtin.hexplug:_ZNSt11regex_errorD0Ev
builtin.hexplug:_ZNSt11regex_errorD1Ev
builtin.hexplug:_ZNSt11regex_errorD2Ev
builtin.hexplug:_ZNSt7__cxx1112basic_stringIcSt11char_traitsIcESaIcEE10_M_replaceEmmPKcm
builtin.hexplug:_ZNSt7__cxx1112basic_stringIcSt11char_traitsIcESaIcEE7reserveEm
builtin.hexplug:_ZNSt7__cxx1112basic_stringIcSt11char_traitsIcESaIcEE9_M_assignERKS4_
builtin.hexplug:_ZNSt7__cxx1112basic_stringIcSt11char_traitsIcESaIcEE9_M_createERmm
builtin.hexplug:_ZNSt7__cxx1112basic_stringIcSt11char_traitsIcESaIcEE9_M_mutateEmmPKcm
builtin.hexplug:_ZNSt8__detail8_ScannerIcE18_M_eat_escape_ecmaEv
builtin.hexplug:_ZNSt8__detail8_ScannerIcE19_M_eat_escape_posixEv
builtin.hexplug:_ZSt19__throw_regex_errorNSt15regex_constants10error_typeE
libimhex.so:NFD_ClearError
libimhex.so:NFD_FreePathN
libimhex.so:NFD_GetError
libimhex.so:NFD_Init
libimhex.so:NFD_OpenDialogMultipleN
libimhex.so:NFD_OpenDialogN
libimhex.so:NFD_PathSet_EnumNextN
libimhex.so:NFD_PathSet_Free
libimhex.so:NFD_PathSet_FreeEnum
libimhex.so:NFD_PathSet_FreePathN
libimhex.so:NFD_PathSet_GetCount
libimhex.so:NFD_PathSet_GetEnum
libimhex.so:NFD_PathSet_GetPathN
libimhex.so:NFD_PickFolderN
libimhex.so:NFD_Quit
libimhex.so:NFD_SaveDialogN
libimhex.so:_Z10ImFileOpenPKcS0_
libimhex.so:_Z10ImFileReadPvyyP8_IO_FILE
libimhex.so:_Z10ImHashDataPKvmj
libimhex.so:_Z10ImStrnicmpPKcS0_m
libimhex.so:_Z11ImFileCloseP8_IO_FILE
libimhex.so:_Z11ImFileWritePKvyyP8_IO_FILE
libimhex.so:_Z11ImStrdupcpyPcPmPKc
libimhex.so:_Z13ImFileGetSizeP8_IO_FILE
libimhex.so:_Z13ImStrchrRangePKcS0_c
libimhex.so:_Z13ImStreolRangePKcS0_
libimhex.so:_Z14ImFormatStringPcmPKcz
libimhex.so:_Z14ImStrSkipBlankPKc
libimhex.so:_Z15ImFormatStringVPcmPKcP13__va_list_tag
libimhex.so:_Z15ImStrTrimBlanksPc
libimhex.so:_Z15ImTextStrToUtf8PciPKtS1_
libimhex.so:_Z17ImBezierCubicCalcRK6ImVec2S1_S1_S1_f
libimhex.so:_Z17ImTextStrFromUtf8PtiPKcS1_PS1_
libimhex.so:_Z18ImAlphaBlendColorsjj
libimhex.so:_Z18ImFileLoadToMemoryPKcS0_Pmi
libimhex.so:_Z18ImLineClosestPointRK6ImVec2S1_S1_
libimhex.so:_Z18ImTextCharFromUtf8PjPKcS1_
libimhex.so:_Z20ImFontAtlasBuildInitP11ImFontAtlas
libimhex.so:_Z20ImParseFormatFindEndPKc
libimhex.so:_Z20_txnal_cow_string_D1Pv
libimhex.so:_Z21ImBezierQuadraticCalcRK6ImVec2S1_S1_f
libimhex.so:_Z22ImFontAtlasBuildFinishP11ImFontAtlas
libimhex.so:_Z22ImParseFormatFindStartPKc
libimhex.so:_Z22ImParseFormatPrecisionPKci
libimhex.so:_Z22ImTriangleClosestPointRK6ImVec2S1_S1_S1_
libimhex.so:_Z23ImTriangleContainsPointRK6ImVec2S1_S1_S1_
libimhex.so:_Z23_txnal_cow_string_c_strPKv
libimhex.so:_Z23_txnal_sso_string_c_strPKv
libimhex.so:_Z24ImTextCountCharsFromUtf8PKcS0_
libimhex.so:_Z25ImBezierCubicClosestPointRK6ImVec2S1_S1_S1_S1_i
libimhex.so:_Z25ImFontAtlasBuildSetupFontP11ImFontAtlasP6ImFontP12ImFontConfigff
libimhex.so:_Z25ImGetDirQuadrantFromDeltaff
libimhex.so:_Z26_txnal_logic_error_get_msgPv
libimhex.so:_Z27ImTextCountUtf8BytesFromStrPKtS0_
libimhex.so:_Z27ImTriangleBarycentricCoordsRK6ImVec2S1_S1_S1_RfS2_S2_
libimhex.so:_Z27_txnal_cow_string_D1_commitPv
libimhex.so:_Z28ImParseFormatTrimDecorationsPKcPcm
libimhex.so:_Z28ImTextCountUtf8BytesFromCharPKcS0_
libimhex.so:_Z28_txnal_runtime_error_get_msgPv
libimhex.so:_Z31ImFontAtlasBuildPackCustomRectsP11ImFontAtlasPv
libimhex.so:_Z31ImFontAtlasBuildWithStbTruetypeP11ImFontAtlas
libimhex.so:_Z34ImBezierCubicClosestPointCasteljauRK6ImVec2S1_S1_S1_S1_f
libimhex.so:_Z34ImFontAtlasBuildMultiplyRectAlpha8PKhPhiiiii
libimhex.so:_Z35_txnal_cow_string_C1_for_exceptionsPvPKcS_
libimhex.so:_Z39ImFontAtlasBuildMultiplyCalcLookupTablePhf
libimhex.so:_Z40ImFontAtlasBuildRender1bppRectFromStringP11ImFontAtlasiiiiPKcch
libimhex.so:_Z8ImStrdupPKc
libimhex.so:_Z9ImHashStrPKcmj
libimhex.so:_Z9ImStrbolWPKtS0_
libimhex.so:_Z9ImStricmpPKcS0_
libimhex.so:_Z9ImStristrPKcS0_S0_S0_
libimhex.so:_Z9ImStrlenWPKt
libimhex.so:_Z9ImStrncpyPcPKcm
libimhex.so:_ZGTtNKSt11logic_error4whatEv
libimhex.so:_ZGTtNKSt13bad_exception4whatEv
libimhex.so:_ZGTtNKSt13bad_exceptionD1Ev
libimhex.so:_ZGTtNKSt13runtime_error4whatEv
libimhex.so:_ZGTtNKSt9exception4whatEv
libimhex.so:_ZGTtNKSt9exceptionD1Ev
libimhex.so:_ZGTtNSt11logic_errorC1EPKc
libimhex.so:_ZGTtNSt11logic_errorC1ERKNSt7__cxx1112basic_stringIcSt11char_traitsIcESaIcEEE
libimhex.so:_ZGTtNSt11logic_errorC2EPKc
libimhex.so:_ZGTtNSt11logic_errorC2ERKNSt7__cxx1112basic_stringIcSt11char_traitsIcESaIcEEE
libimhex.so:_ZGTtNSt11logic_errorD0Ev
libimhex.so:_ZGTtNSt11logic_errorD1Ev
libimhex.so:_ZGTtNSt11logic_errorD2Ev
libimhex.so:_ZGTtNSt11range_errorC1EPKc
libimhex.so:_ZGTtNSt11range_errorC1ERKNSt7__cxx1112basic_stringIcSt11char_traitsIcESaIcEEE
libimhex.so:_ZGTtNSt11range_errorC2EPKc
libimhex.so:_ZGTtNSt11range_errorC2ERKNSt7__cxx1112basic_stringIcSt11char_traitsIcESaIcEEE
libimhex.so:_ZGTtNSt11range_errorD0Ev
libimhex.so:_ZGTtNSt11range_errorD1Ev
libimhex.so:_ZGTtNSt11range_errorD2Ev
libimhex.so:_ZGTtNSt12domain_errorC1EPKc
libimhex.so:_ZGTtNSt12domain_errorC1ERKNSt7__cxx1112basic_stringIcSt11char_traitsIcESaIcEEE
libimhex.so:_ZGTtNSt12domain_errorC2EPKc
libimhex.so:_ZGTtNSt12domain_errorC2ERKNSt7__cxx1112basic_stringIcSt11char_traitsIcESaIcEEE
libimhex.so:_ZGTtNSt12domain_errorD0Ev
libimhex.so:_ZGTtNSt12domain_errorD1Ev
libimhex.so:_ZGTtNSt12domain_errorD2Ev
libimhex.so:_ZGTtNSt12length_errorC1EPKc
libimhex.so:_ZGTtNSt12length_errorC1ERKNSt7__cxx1112basic_stringIcSt11char_traitsIcESaIcEEE
libimhex.so:_ZGTtNSt12length_errorC2EPKc
libimhex.so:_ZGTtNSt12length_errorC2ERKNSt7__cxx1112basic_stringIcSt11char_traitsIcESaIcEEE
libimhex.so:_ZGTtNSt12length_errorD0Ev
libimhex.so:_ZGTtNSt12length_errorD1Ev
libimhex.so:_ZGTtNSt12length_errorD2Ev
libimhex.so:_ZGTtNSt12out_of_rangeC1EPKc
libimhex.so:_ZGTtNSt12out_of_rangeC1ERKNSt7__cxx1112basic_stringIcSt11char_traitsIcESaIcEEE
libimhex.so:_ZGTtNSt12out_of_rangeC2EPKc
libimhex.so:_ZGTtNSt12out_of_rangeC2ERKNSt7__cxx1112basic_stringIcSt11char_traitsIcESaIcEEE
libimhex.so:_ZGTtNSt12out_of_rangeD0Ev
libimhex.so:_ZGTtNSt12out_of_rangeD1Ev
libimhex.so:_ZGTtNSt12out_of_rangeD2Ev
libimhex.so:_ZGTtNSt13runtime_errorC1EPKc
libimhex.so:_ZGTtNSt13runtime_errorC1ERKNSt7__cxx1112basic_stringIcSt11char_traitsIcESaIcEEE
libimhex.so:_ZGTtNSt13runtime_errorC2EPKc
libimhex.so:_ZGTtNSt13runtime_errorC2ERKNSt7__cxx1112basic_stringIcSt11char_traitsIcESaIcEEE
libimhex.so:_ZGTtNSt13runtime_errorD0Ev
libimhex.so:_ZGTtNSt13runtime_errorD1Ev
libimhex.so:_ZGTtNSt13runtime_errorD2Ev
libimhex.so:_ZGTtNSt14overflow_errorC1EPKc
libimhex.so:_ZGTtNSt14overflow_errorC1ERKNSt7__cxx1112basic_stringIcSt11char_traitsIcESaIcEEE
libimhex.so:_ZGTtNSt14overflow_errorC2EPKc
libimhex.so:_ZGTtNSt14overflow_errorC2ERKNSt7__cxx1112basic_stringIcSt11char_traitsIcESaIcEEE
libimhex.so:_ZGTtNSt14overflow_errorD0Ev
libimhex.so:_ZGTtNSt14overflow_errorD1Ev
libimhex.so:_ZGTtNSt14overflow_errorD2Ev
libimhex.so:_ZGTtNSt15underflow_errorC1EPKc
libimhex.so:_ZGTtNSt15underflow_errorC1ERKNSt7__cxx1112basic_stringIcSt11char_traitsIcESaIcEEE
libimhex.so:_ZGTtNSt15underflow_errorC2EPKc
libimhex.so:_ZGTtNSt15underflow_errorC2ERKNSt7__cxx1112basic_stringIcSt11char_traitsIcESaIcEEE
libimhex.so:_ZGTtNSt15underflow_errorD0Ev
libimhex.so:_ZGTtNSt15underflow_errorD1Ev
libimhex.so:_ZGTtNSt15underflow_errorD2Ev
libimhex.so:_ZGTtNSt16invalid_argumentC1EPKc
libimhex.so:_ZGTtNSt16invalid_argumentC1ERKNSt7__cxx1112basic_stringIcSt11char_traitsIcESaIcEEE
libimhex.so:_ZGTtNSt16invalid_argumentC2EPKc
libimhex.so:_ZGTtNSt16invalid_argumentC2ERKNSt7__cxx1112basic_stringIcSt11char_traitsIcESaIcEEE
libimhex.so:_ZGTtNSt16invalid_argumentD0Ev
libimhex.so:_ZGTtNSt16invalid_argumentD1Ev
libimhex.so:_ZGTtNSt16invalid_argumentD2Ev
libimhex.so:_ZN10ImDrawData14ScaleClipRectsERK6ImVec2
libimhex.so:_ZN10ImDrawData17DeIndexAllBuffersEv
libimhex.so:_ZN10ImDrawList10AddDrawCmdEv
libimhex.so:_ZN10ImDrawList10PrimQuadUVERK6ImVec2S2_S2_S2_S2_S2_S2_S2_j
libimhex.so:_ZN10ImDrawList10PrimRectUVERK6ImVec2S2_S2_S2_j
libimhex.so:_ZN10ImDrawList11AddCallbackEPFvPKS_PK9ImDrawCmdEPv
libimhex.so:_ZN10ImDrawList11AddPolylineEPK6ImVec2ijbf
libimhex.so:_ZN10ImDrawList11AddTriangleERK6ImVec2S2_S2_jf
libimhex.so:_ZN10ImDrawList11PopClipRectEv
libimhex.so:_ZN10ImDrawList11PrimReserveEii
libimhex.so:_ZN10ImDrawList12AddImageQuadEPvRK6ImVec2S3_S3_S3_S3_S3_S3_S3_j
libimhex.so:_ZN10ImDrawList12PopTextureIDEv
libimhex.so:_ZN10ImDrawList12PushClipRectE6ImVec2S0_b
libimhex.so:_ZN10ImDrawList13AddNgonFilledERK6ImVec2fji
libimhex.so:_ZN10ImDrawList13AddQuadFilledERK6ImVec2S2_S2_S2_j
libimhex.so:_ZN10ImDrawList13AddRectFilledERK6ImVec2S2_jfi
libimhex.so:_ZN10ImDrawList13PathArcToFastERK6ImVec2fii
libimhex.so:_ZN10ImDrawList13PrimUnreserveEii
libimhex.so:_ZN10ImDrawList13PushTextureIDEPv
libimhex.so:_ZN10ImDrawList14AddBezierCubicERK6ImVec2S2_S2_S2_jfi
libimhex.so:_ZN10ImDrawList15AddCircleFilledERK6ImVec2fji
libimhex.so:_ZN10ImDrawList15AddImageRoundedEPvRK6ImVec2S3_S3_S3_jfi
libimhex.so:_ZN10ImDrawList16_ClearFreeMemoryEv
libimhex.so:_ZN10ImDrawList17AddTriangleFilledERK6ImVec2S2_S2_j
libimhex.so:_ZN10ImDrawList17_PopUnusedDrawCmdEv
libimhex.so:_ZN10ImDrawList17_ResetForNewFrameEv
libimhex.so:_ZN10ImDrawList18AddBezierQuadraticERK6ImVec2S2_S2_jfi
libimhex.so:_ZN10ImDrawList18_OnChangedClipRectEv
libimhex.so:_ZN10ImDrawList19AddConvexPolyFilledEPK6ImVec2ij
libimhex.so:_ZN10ImDrawList19_OnChangedTextureIDEv
libimhex.so:_ZN10ImDrawList19_OnChangedVtxOffsetEv
libimhex.so:_ZN10ImDrawList22PathBezierCubicCurveToERK6ImVec2S2_S2_i
libimhex.so:_ZN10ImDrawList22PushClipRectFullScreenEv
libimhex.so:_ZN10ImDrawList23AddRectFilledMultiColorERK6ImVec2S2_jjjj
libimhex.so:_ZN10ImDrawList26PathBezierQuadraticCurveToERK6ImVec2S2_i
libimhex.so:_ZN10ImDrawList7AddLineERK6ImVec2S2_jf
libimhex.so:_ZN10ImDrawList7AddNgonERK6ImVec2fjif
libimhex.so:_ZN10ImDrawList7AddQuadERK6ImVec2S2_S2_S2_jf
libimhex.so:_ZN10ImDrawList7AddRectERK6ImVec2S2_jfif
libimhex.so:_ZN10ImDrawList7AddTextEPK6ImFontfRK6ImVec2jPKcS7_fPK6ImVec4
libimhex.so:_ZN10ImDrawList7AddTextERK6ImVec2jPKcS4_
libimhex.so:_ZN10ImDrawList8AddImageEPvRK6ImVec2S3_S3_S3_j
libimhex.so:_ZN10ImDrawList8PathRectERK6ImVec2S2_fi
libimhex.so:_ZN10ImDrawList8PrimRectERK6ImVec2S2_j
libimhex.so:_ZN10ImDrawList9AddCircleERK6ImVec2fjif
libimhex.so:_ZN10ImDrawList9PathArcToERK6ImVec2fffi
libimhex.so:_ZN10ImGuiStyle13ScaleAllSizesEf
libimhex.so:_ZN10ImGuiStyleC1Ev
libimhex.so:_ZN10ImGuiStyleC2Ev
libimhex.so:_ZN10__cxxabiv111__terminateEPFvvE
libimhex.so:_ZN10__cxxabiv112__unexpectedEPFvvE
libimhex.so:_ZN10__cxxabiv115__forced_unwindD0Ev
libimhex.so:_ZN10__cxxabiv115__forced_unwindD1Ev
libimhex.so:_ZN10__cxxabiv115__forced_unwindD2Ev
libimhex.so:_ZN10__cxxabiv117__class_type_infoD0Ev
libimhex.so:_ZN10__cxxabiv117__class_type_infoD1Ev
libimhex.so:_ZN10__cxxabiv117__class_type_infoD2Ev
libimhex.so:_ZN10__cxxabiv119__foreign_exceptionD0Ev
libimhex.so:_ZN10__cxxabiv119__foreign_exceptionD1Ev
libimhex.so:_ZN10__cxxabiv119__foreign_exceptionD2Ev
libimhex.so:_ZN10__cxxabiv120__si_class_type_infoD0Ev
libimhex.so:_ZN10__cxxabiv120__si_class_type_infoD1Ev
libimhex.so:_ZN10__cxxabiv120__si_class_type_infoD2Ev
libimhex.so:_ZN10__cxxabiv121__vmi_class_type_infoD0Ev
libimhex.so:_ZN10__cxxabiv121__vmi_class_type_infoD1Ev
libimhex.so:_ZN10__cxxabiv121__vmi_class_type_infoD2Ev
libimhex.so:_ZN11ImFontAtlas10ClearFontsEv
libimhex.so:_ZN11ImFontAtlas12ClearTexDataEv
libimhex.so:_ZN11ImFontAtlas14AddFontDefaultEPK12ImFontConfig
libimhex.so:_ZN11ImFontAtlas14ClearInputDataEv
libimhex.so:_ZN11ImFontAtlas18AddFontFromFileTTFEPKcfPK12ImFontConfigPKt
libimhex.so:_ZN11ImFontAtlas18GetGlyphRangesThaiEv
libimhex.so:_ZN11ImFontAtlas18GetTexDataAsAlpha8EPPhPiS2_S2_
libimhex.so:_ZN11ImFontAtlas18GetTexDataAsRGBA32EPPhPiS2_S2_
libimhex.so:_ZN11ImFontAtlas20AddCustomRectRegularEii
libimhex.so:_ZN11ImFontAtlas20AddFontFromMemoryTTFEPvifPK12ImFontConfigPKt
libimhex.so:_ZN11ImFontAtlas20GetGlyphRangesKoreanEv
libimhex.so:_ZN11ImFontAtlas21GetGlyphRangesDefaultEv
libimhex.so:_ZN11ImFontAtlas21GetMouseCursorTexDataEiP6ImVec2S1_S1_S1_
libimhex.so:_ZN11ImFontAtlas22AddCustomRectFontGlyphEP6ImFonttiifRK6ImVec2
libimhex.so:_ZN11ImFontAtlas22GetGlyphRangesCyrillicEv
libimhex.so:_ZN11ImFontAtlas22GetGlyphRangesJapaneseEv
libimhex.so:_ZN11ImFontAtlas24GetGlyphRangesVietnameseEv
libimhex.so:_ZN11ImFontAtlas25GetGlyphRangesChineseFullEv
libimhex.so:_ZN11ImFontAtlas30AddFontFromMemoryCompressedTTFEPKvifPK12ImFontConfigPKt
libimhex.so:_ZN11ImFontAtlas36AddFontFromMemoryCompressedBase85TTFEPKcfPK12ImFontConfigPKt
libimhex.so:_ZN11ImFontAtlas37GetGlyphRangesChineseSimplifiedCommonEv
libimhex.so:_ZN11ImFontAtlas5BuildEv
libimhex.so:_ZN11ImFontAtlas5ClearEv
libimhex.so:_ZN11ImFontAtlas7AddFontEPK12ImFontConfig
libimhex.so:_ZN11ImFontAtlasC1Ev
libimhex.so:_ZN11ImFontAtlasC2Ev
libimhex.so:_ZN11ImFontAtlasD1Ev
libimhex.so:_ZN11ImFontAtlasD2Ev
libimhex.so:_ZN11ImGuiTabBarC1Ev
libimhex.so:_ZN11ImGuiTabBarC2Ev
libimhex.so:_ZN11ImGuiWindow16GetIDNoKeepAliveEPKcS1_
libimhex.so:_ZN11ImGuiWindow16GetIDNoKeepAliveEPKv
libimhex.so:_ZN11ImGuiWindow16GetIDNoKeepAliveEi
libimhex.so:_ZN11ImGuiWindow18GetIDFromRectangleERK6ImRect
libimhex.so:_ZN11ImGuiWindow5GetIDEPKcS1_
libimhex.so:_ZN11ImGuiWindow5GetIDEPKv
libimhex.so:_ZN11ImGuiWindow5GetIDEi
libimhex.so:_ZN11ImGuiWindowC1EP12ImGuiContextPKc
libimhex.so:_ZN11ImGuiWindowC2EP12ImGuiContextPKc
libimhex.so:_ZN11ImGuiWindowD1Ev
libimhex.so:_ZN11ImGuiWindowD2Ev
libimhex.so:_ZN12ImFontConfigC1Ev
libimhex.so:_ZN12ImFontConfigC2Ev
libimhex.so:_ZN12ImGuiStorage10GetBoolRefEjb
libimhex.so:_ZN12ImGuiStorage10SetVoidPtrEjPv
libimhex.so:_ZN12ImGuiStorage11GetFloatRefEjf
libimhex.so:_ZN12ImGuiStorage13GetVoidPtrRefEjPv
libimhex.so:_ZN12ImGuiStorage14BuildSortByKeyEv
libimhex.so:_ZN12ImGuiStorage6SetIntEji
libimhex.so:_ZN12ImGuiStorage7SetBoolEjb
libimhex.so:_ZN12ImGuiStorage8SetFloatEjf
libimhex.so:_ZN12ImGuiStorage9GetIntRefEji
libimhex.so:_ZN12ImGuiStorage9SetAllIntEi
libimhex.so:_ZN13ImGuiDockNodeC1Ej
libimhex.so:_ZN13ImGuiDockNodeC2Ej
libimhex.so:_ZN13ImGuiDockNodeD1Ev
libimhex.so:_ZN13ImGuiDockNodeD2Ev
libimhex.so:_ZN15ImGuiStackSizes17SetToCurrentStateEv
libimhex.so:_ZN15ImGuiStackSizes23CompareWithCurrentStateEv
libimhex.so:_ZN15ImGuiTextBuffer6appendEPKcS1_
libimhex.so:_ZN15ImGuiTextBuffer7appendfEPKcz
libimhex.so:_ZN15ImGuiTextBuffer8appendfvEPKcP13__va_list_tag
libimhex.so:_ZN15ImGuiTextFilter4DrawEPKcf
libimhex.so:_ZN15ImGuiTextFilter5BuildEv
libimhex.so:_ZN15ImGuiTextFilterC1EPKc
libimhex.so:_ZN15ImGuiTextFilterC2EPKc
libimhex.so:_ZN16ImGuiListClipper3EndEv
libimhex.so:_ZN16ImGuiListClipper4StepEv
libimhex.so:_ZN16ImGuiListClipper5BeginEif
libimhex.so:_ZN16ImGuiListClipperC1Ev
libimhex.so:_ZN16ImGuiListClipperC2Ev
libimhex.so:_ZN16ImGuiListClipperD1Ev
libimhex.so:_ZN16ImGuiListClipperD2Ev
libimhex.so:_ZN16ImGuiMenuColumns11DeclColumnsEfff
libimhex.so:_ZN16ImGuiMenuColumns6UpdateEifb
libimhex.so:_ZN17ImDrawDataBuilder22FlattenIntoSingleLayerEv
libimhex.so:_ZN18ImDrawListSplitter15ClearFreeMemoryEv
libimhex.so:_ZN18ImDrawListSplitter17SetCurrentChannelEP10ImDrawListi
libimhex.so:_ZN18ImDrawListSplitter5MergeEP10ImDrawList
libimhex.so:_ZN18ImDrawListSplitter5SplitEP10ImDrawListi
libimhex.so:_ZN19ImGuiInputTextState12OnKeyPressedEi
libimhex.so:_ZN20ImDrawListSharedData24SetCircleSegmentMaxErrorEf
libimhex.so:_ZN20ImDrawListSharedDataC1Ev
libimhex.so:_ZN20ImDrawListSharedDataC2Ev
libimhex.so:_ZN24ImFontGlyphRangesBuilder11BuildRangesEP8ImVectorItE
libimhex.so:_ZN24ImFontGlyphRangesBuilder7AddTextEPKcS1_
libimhex.so:_ZN24ImFontGlyphRangesBuilder9AddRangesEPKt
libimhex.so:_ZN26ImGuiInputTextCallbackData11DeleteCharsEii
libimhex.so:_ZN26ImGuiInputTextCallbackData11InsertCharsEiPKcS1_
libimhex.so:_ZN26ImGuiInputTextCallbackDataC1Ev
libimhex.so:_ZN26ImGuiInputTextCallbackDataC2Ev
libimhex.so:_ZN3hex11openWebpageESt17basic_string_viewIcSt11char_traitsIcEE
libimhex.so:_ZN3hex11splitStringB5cxx11ESt17basic_string_viewIcSt11char_traitsIcEES3_
libimhex.so:_ZN3hex12toByteStringB5cxx11Em
libimhex.so:_ZN3hex13makePrintableB5cxx11Ec
libimhex.so:_ZN3hex14combineStringsERKSt6vectorINSt7__cxx1112basic_stringIcSt11char_traitsIcESaIcEEESaIS6_EESt17basic_string_viewIcS4_E
libimhex.so:_ZN3hex15ContentRegistry13DataInspector10getEntriesEv
libimhex.so:_ZN3hex15ContentRegistry13DataInspector3addESt17basic_string_viewIcSt11char_traitsIcEEmSt8functionIFS6_IFNSt7__cxx1112basic_stringIcS4_SaIcEEEvEERKSt6vectorIhSaIhEESt6endianNS1_18NumberDisplayStyleEEE
libimhex.so:_ZN3hex15ContentRegistry17DataProcessorNode10getEntriesEv
libimhex.so:_ZN3hex15ContentRegistry17DataProcessorNode12addSeparatorEv
libimhex.so:_ZN3hex15ContentRegistry17DataProcessorNode3addERKNS1_5EntryE
libimhex.so:_ZN3hex15ContentRegistry22CommandPaletteCommands10getEntriesEv
libimhex.so:_ZN3hex15ContentRegistry22CommandPaletteCommands3addENS1_4TypeESt17basic_string_viewIcSt11char_traitsIcEES6_RKSt8functionIFNSt7__cxx1112basic_stringIcS5_SaIcEEESB_EERKS7_IFvSB_EE
libimhex.so:_ZN3hex15ContentRegistry24PatternLanguageFunctions10getEntriesB5cxx11Ev
libimhex.so:_ZN3hex15ContentRegistry24PatternLanguageFunctions3addESt17basic_string_viewIcSt11char_traitsIcEEjRKSt8functionIFPNS_4lang7ASTNodeERNS7_9EvaluatorERSt6vectorIS9_SaIS9_EEEE
libimhex.so:_ZN3hex15ContentRegistry5Tools10getEntriesEv
libimhex.so:_ZN3hex15ContentRegistry5Tools3addESt17basic_string_viewIcSt11char_traitsIcEERKSt8functionIFvvEE
libimhex.so:_ZN3hex15ContentRegistry5Views10getEntriesEv
libimhex.so:_ZN3hex15ContentRegistry5Views3addEPNS_4ViewE
libimhex.so:_ZN3hex15ContentRegistry8Language12getLanguagesB5cxx11Ev
libimhex.so:_ZN3hex15ContentRegistry8Language16addLocalizationsESt17basic_string_viewIcSt11char_traitsIcEERKNS_18LanguageDefinitionE
libimhex.so:_ZN3hex15ContentRegistry8Language16registerLanguageESt17basic_string_viewIcSt11char_traitsIcEES5_
libimhex.so:_ZN3hex15ContentRegistry8Language22getLanguageDefinitionsB5cxx11Ev
libimhex.so:_ZN3hex15ContentRegistry8Settings10getEntriesB5cxx11Ev
libimhex.so:_ZN3hex15ContentRegistry8Settings10getSettingB5cxx11ESt17basic_string_viewIcSt11char_traitsIcEES5_
libimhex.so:_ZN3hex15ContentRegistry8Settings15getSettingsDataB5cxx11Ev
libimhex.so:_ZN3hex15ContentRegistry8Settings3addESt17basic_string_viewIcSt11char_traitsIcEES5_S5_RKSt8functionIFbS5_RN8nlohmann10basic_jsonISt3mapSt6vectorNSt7__cxx1112basic_stringIcS4_SaIcEEEblmdSaNS7_14adl_serializerESA_IhSaIhEEEEEE
libimhex.so:_ZN3hex15ContentRegistry8Settings3addESt17basic_string_viewIcSt11char_traitsIcEES5_lRKSt8functionIFbS5_RN8nlohmann10basic_jsonISt3mapSt6vectorNSt7__cxx1112basic_stringIcS4_SaIcEEEblmdSaNS7_14adl_serializerESA_IhSaIhEEEEEE
libimhex.so:_ZN3hex15ContentRegistry8Settings4loadEv
libimhex.so:_ZN3hex15ContentRegistry8Settings4readB5cxx11ESt17basic_string_viewIcSt11char_traitsIcEES5_S5_
libimhex.so:_ZN3hex15ContentRegistry8Settings4readESt17basic_string_viewIcSt11char_traitsIcEES5_RKSt6vectorINSt7__cxx1112basic_stringIcS4_SaIcEEESaISA_EE
libimhex.so:_ZN3hex15ContentRegistry8Settings4readESt17basic_string_viewIcSt11char_traitsIcEES5_l
libimhex.so:_ZN3hex15ContentRegistry8Settings5storeEv
libimhex.so:_ZN3hex15ContentRegistry8Settings5writeESt17basic_string_viewIcSt11char_traitsIcEES5_RKSt6vectorINSt7__cxx1112basic_stringIcS4_SaIcEEESaISA_EE
libimhex.so:_ZN3hex15ContentRegistry8Settings5writeESt17basic_string_viewIcSt11char_traitsIcEES5_S5_
libimhex.so:_ZN3hex15ContentRegistry8Settings5writeESt17basic_string_viewIcSt11char_traitsIcEES5_l
libimhex.so:_ZN3hex15ContentRegistry9Interface13addFooterItemERKSt8functionIFvvEE
libimhex.so:_ZN3hex15ContentRegistry9Interface14getFooterItemsEv
libimhex.so:_ZN3hex15ContentRegistry9Interface21addWelcomeScreenEntryERKSt8functionIFvvEE
libimhex.so:_ZN3hex15ContentRegistry9Interface23getWelcomeScreenEntriesEv
libimhex.so:_ZN3hex18LanguageDefinitionC1ESt16initializer_listISt4pairINSt7__cxx1112basic_stringIcSt11char_traitsIcESaIcEEES8_EE
libimhex.so:_ZN3hex18LanguageDefinitionC2ESt16initializer_listISt4pairINSt7__cxx1112basic_stringIcSt11char_traitsIcESaIcEEES8_EE
libimhex.so:_ZN3hex19toEngineeringStringB5cxx11Ed
libimhex.so:_ZN3hex3Net7getJsonB5cxx11ESt17basic_string_viewIcSt11char_traitsIcEE
libimhex.so:_ZN3hex3Net9getStringB5cxx11ESt17basic_string_viewIcSt11char_traitsIcEE
libimhex.so:_ZN3hex3NetC1Ev
libimhex.so:_ZN3hex3NetC2Ev
libimhex.so:_ZN3hex3NetD1Ev
libimhex.so:_ZN3hex3NetD2Ev
libimhex.so:_ZN3hex3prv8Provider10getPatchesEv
libimhex.so:_ZN3hex3prv8Provider10newOverlayEv
libimhex.so:_ZN3hex3prv8Provider11getOverlaysB5cxx11Ev
libimhex.so:_ZN3hex3prv8Provider12applyPatchesEv
libimhex.so:_ZN3hex3prv8Provider12getPageCountEv
libimhex.so:_ZN3hex3prv8Provider12readRelativeEmPvmb
libimhex.so:_ZN3hex3prv8Provider13applyOverlaysEmPvm
libimhex.so:_ZN3hex3prv8Provider13deleteOverlayEPNS0_7OverlayE
libimhex.so:_ZN3hex3prv8Provider13writeRelativeEmPKvm
libimhex.so:_ZN3hex3prv8Provider14getBaseAddressEv
libimhex.so:_ZN3hex3prv8Provider14setBaseAddressEm
libimhex.so:_ZN3hex3prv8Provider14setCurrentPageEj
libimhex.so:_ZN3hex3prv8Provider16getPageOfAddressEm
libimhex.so:_ZN3hex3prv8Provider4readEmPvmb
libimhex.so:_ZN3hex3prv8Provider4redoEv
libimhex.so:_ZN3hex3prv8Provider4undoEv
libimhex.so:_ZN3hex3prv8Provider5writeEmPKvm
libimhex.so:_ZN3hex3prv8Provider7canRedoEv
libimhex.so:_ZN3hex3prv8Provider7canUndoEv
libimhex.so:_ZN3hex3prv8Provider7getSizeEv
libimhex.so:_ZN3hex3prv8Provider8addPatchEmPKvm
libimhex.so:_ZN3hex3prv8ProviderC1Ev
libimhex.so:_ZN3hex3prv8ProviderC2Ev
libimhex.so:_ZN3hex3prv8ProviderD0Ev
libimhex.so:_ZN3hex3prv8ProviderD1Ev
libimhex.so:_ZN3hex3prv8ProviderD2Ev
libimhex.so:_ZN3hex4View10getMaxSizeEv
libimhex.so:_ZN3hex4View10getMinSizeEv
libimhex.so:_ZN3hex4View11isAvailableEv
libimhex.so:_ZN3hex4View14confirmButtonsEPKcS2_RKSt8functionIFvvEES7_
libimhex.so:_ZN3hex4View14handleShortcutEPbbbb
libimhex.so:_ZN3hex4View14showErrorPopupESt17basic_string_viewIcSt11char_traitsIcEE
libimhex.so:_ZN3hex4View14showFatalPopupESt17basic_string_viewIcSt11char_traitsIcEE
libimhex.so:_ZN3hex4View15getDeferedCallsEv
libimhex.so:_ZN3hex4View15openFileBrowserESt17basic_string_viewIcSt11char_traitsIcEENS0_10DialogModeERKSt6vectorI16nfdnfilteritem_tSaIS7_EERKSt8functionIFvNSt7__cxx1112basic_stringIcS3_SaIcEEEEE
libimhex.so:_ZN3hex4View18getWindowOpenStateEv
libimhex.so:_ZN3hex4View20drawCommonInterfacesEv
libimhex.so:_ZN3hex4View20hasViewMenuItemEntryEv
libimhex.so:_ZN3hex4View25discardNavigationRequestsEv
libimhex.so:_ZN3hex4View7doLaterEOSt8functionIFvvEE
libimhex.so:_ZN3hex4View8drawMenuEv
libimhex.so:_ZN3hex4ViewC1ENSt7__cxx1112basic_stringIcSt11char_traitsIcESaIcEEE
libimhex.so:_ZN3hex4ViewC2ENSt7__cxx1112basic_stringIcSt11char_traitsIcESaIcEEE
libimhex.so:_ZN3hex4lang12Preprocessor10preprocessERKNSt7__cxx1112basic_stringIcSt11char_traitsIcESaIcEEEb
libimhex.so:_ZN3hex4lang12Preprocessor16addPragmaHandlerERKNSt7__cxx1112basic_stringIcSt11char_traitsIcESaIcEEERKSt8functionIFbS9_EE
libimhex.so:_ZN3hex4lang12Preprocessor24addDefaultPragmaHandlersEv
libimhex.so:_ZN3hex4lang12PreprocessorC1Ev
libimhex.so:_ZN3hex4lang12PreprocessorC2Ev
libimhex.so:_ZN3hex4lang12getCharacterESt17basic_string_viewIcSt11char_traitsIcEE
libimhex.so:_ZN3hex4lang15PatternLanguage11executeFileEPNS_3prv8ProviderESt17basic_string_viewIcSt11char_traitsIcEE
libimhex.so:_ZN3hex4lang15PatternLanguage13executeStringEPNS_3prv8ProviderESt17basic_string_viewIcSt11char_traitsIcEE
libimhex.so:_ZN3hex4lang15PatternLanguage13getConsoleLogB5cxx11Ev
libimhex.so:_ZN3hex4lang15PatternLanguage8getErrorB5cxx11Ev
libimhex.so:_ZN3hex4lang15PatternLanguageC1Ev
libimhex.so:_ZN3hex4lang15PatternLanguageC2Ev
libimhex.so:_ZN3hex4lang15PatternLanguageD1Ev
libimhex.so:_ZN3hex4lang15PatternLanguageD2Ev
libimhex.so:_ZN3hex4lang16getStringLiteralB5cxx11ESt17basic_string_viewIcSt11char_traitsIcEE
libimhex.so:_ZN3hex4lang16matchTillInvalidB5cxx11EPKcSt8functionIFbcEE
libimhex.so:_ZN3hex4lang19getCharacterLiteralESt17basic_string_viewIcSt11char_traitsIcEE
libimhex.so:_ZN3hex4lang19parseIntegerLiteralESt17basic_string_viewIcSt11char_traitsIcEE
libimhex.so:_ZN3hex4lang23getIntegerLiteralLengthESt17basic_string_viewIcSt11char_traitsIcEE
libimhex.so:_ZN3hex4lang5Lexer3lexERKNSt7__cxx1112basic_stringIcSt11char_traitsIcESaIcEEE
libimhex.so:_ZN3hex4lang5LexerC1Ev
libimhex.so:_ZN3hex4lang5LexerC2Ev
libimhex.so:_ZN3hex4lang6Parser10parseUnionEv
libimhex.so:_ZN3hex4lang6Parser11parseFactorEv
libimhex.so:_ZN3hex4lang6Parser11parseMemberEv
libimhex.so:_ZN3hex4lang6Parser11parseRValueERSt6vectorISt7variantIJNSt7__cxx1112basic_stringIcSt11char_traitsIcESaIcEEEPNS0_7ASTNodeEEESaISC_EE
libimhex.so:_ZN3hex4lang6Parser11parseStructEv
libimhex.so:_ZN3hex4lang6Parser12parsePaddingEv
libimhex.so:_ZN3hex4lang6Parser13parseBitfieldEv
libimhex.so:_ZN3hex4lang6Parser14parseAttributeEPNS0_12AttributableE
libimhex.so:_ZN3hex4lang6Parser14parseBooleanOrEv
libimhex.so:_ZN3hex4lang6Parser14parseStatementEv
libimhex.so:_ZN3hex4lang6Parser15parseBooleanAndEv
libimhex.so:_ZN3hex4lang6Parser15parseBooleanXorEv
libimhex.so:_ZN3hex4lang6Parser16parseConditionalEv
libimhex.so:_ZN3hex4lang6Parser17parseFunctionCallEv
libimhex.so:_ZN3hex4lang6Parser18parseStringLiteralEv
libimhex.so:_ZN3hex4lang6Parser19parseMemberVariableEv
libimhex.so:_ZN3hex4lang6Parser19parseWhileStatementEv
libimhex.so:_ZN3hex4lang6Parser20parseScopeResolutionERSt6vectorINSt7__cxx1112basic_stringIcSt11char_traitsIcESaIcEEESaIS8_EE
libimhex.so:_ZN3hex4lang6Parser20parseShiftExpressionEv
libimhex.so:_ZN3hex4lang6Parser20parseUnaryExpressionEv
libimhex.so:_ZN3hex4lang6Parser21parseUsingDeclarationEv
libimhex.so:_ZN3hex4lang6Parser22parseFunctionDefintionEv
libimhex.so:_ZN3hex4lang6Parser22parseFunctionStatementEv
libimhex.so:_ZN3hex4lang6Parser22parseFunctionWhileLoopEv
libimhex.so:_ZN3hex4lang6Parser22parseVariablePlacementEv
libimhex.so:_ZN3hex4lang6Parser23parseAdditiveExpressionEv
libimhex.so:_ZN3hex4lang6Parser23parseBinaryOrExpressionEv
libimhex.so:_ZN3hex4lang6Parser23parseEqualityExpressionEv
libimhex.so:_ZN3hex4lang6Parser23parseRelationExpressionEv
libimhex.so:_ZN3hex4lang6Parser23parseTernaryConditionalEv
libimhex.so:_ZN3hex4lang6Parser24parseBinaryAndExpressionEv
libimhex.so:_ZN3hex4lang6Parser24parseBinaryXorExpressionEv
libimhex.so:_ZN3hex4lang6Parser24parseFunctionConditionalEv
libimhex.so:_ZN3hex4lang6Parser24parseMemberArrayVariableEv
libimhex.so:_ZN3hex4lang6Parser26parseMemberPointerVariableEv
libimhex.so:_ZN3hex4lang6Parser27parseArrayVariablePlacementEv
libimhex.so:_ZN3hex4lang6Parser27parseMathematicalExpressionEv
libimhex.so:_ZN3hex4lang6Parser28parseFunctionReturnStatementEv
libimhex.so:_ZN3hex4lang6Parser29parseMultiplicativeExpressionEv
libimhex.so:_ZN3hex4lang6Parser29parsePointerVariablePlacementEv
libimhex.so:_ZN3hex4lang6Parser31parseFunctionVariableAssignmentEv
libimhex.so:_ZN3hex4lang6Parser5parseERKSt6vectorINS0_5TokenESaIS3_EE
libimhex.so:_ZN3hex4lang6Parser9parseEnumEv
libimhex.so:_ZN3hex4lang6Parser9parseTypeEi
libimhex.so:_ZN3hex4lang9Evaluator11findPatternESt6vectorIPNS0_11PatternDataESaIS4_EERKS2_ISt7variantIJNSt7__cxx1112basic_stringIcSt11char_traitsIcESaIcEEEPNS0_7ASTNodeEEESaISG_EE
libimhex.so:_ZN3hex4lang9Evaluator12evaluateEnumEPNS0_11ASTNodeEnumE
libimhex.so:_ZN3hex4lang9Evaluator12evaluateTypeEPNS0_15ASTNodeTypeDeclE
libimhex.so:_ZN3hex4lang9Evaluator13evaluateArrayEPNS0_24ASTNodeArrayVariableDeclE
libimhex.so:_ZN3hex4lang9Evaluator13evaluateUnionEPNS0_12ASTNodeUnionE
libimhex.so:_ZN3hex4lang9Evaluator14evaluateMemberEPNS0_7ASTNodeERSt6vectorIPNS0_11PatternDataESaIS6_EEb
libimhex.so:_ZN3hex4lang9Evaluator14evaluateRValueEPNS0_13ASTNodeRValueE
libimhex.so:_ZN3hex4lang9Evaluator14evaluateStructEPNS0_13ASTNodeStructE
libimhex.so:_ZN3hex4lang9Evaluator15evaluateOperandEPNS0_7ASTNodeE
libimhex.so:_ZN3hex4lang9Evaluator15evaluatePointerEPNS0_26ASTNodePointerVariableDeclE
libimhex.so:_ZN3hex4lang9Evaluator15patternFromNameERKSt6vectorISt7variantIJNSt7__cxx1112basic_stringIcSt11char_traitsIcESaIcEEEPNS0_7ASTNodeEEESaISC_EE
libimhex.so:_ZN3hex4lang9Evaluator16evaluateBitfieldEPNS0_15ASTNodeBitfieldE
libimhex.so:_ZN3hex4lang9Evaluator16evaluateOperatorEPNS0_21ASTNodeIntegerLiteralES3_NS0_5Token8OperatorE
libimhex.so:_ZN3hex4lang9Evaluator16evaluateVariableEPNS0_19ASTNodeVariableDeclE
libimhex.so:_ZN3hex4lang9Evaluator18evaluateAttributesEPNS0_7ASTNodeEPNS0_11PatternDataE
libimhex.so:_ZN3hex4lang9Evaluator19createLocalVariableESt17basic_string_viewIcSt11char_traitsIcEEPNS0_11PatternDataE
libimhex.so:_ZN3hex4lang9Evaluator19evaluateBuiltinTypeEPNS0_18ASTNodeBuiltinTypeE
libimhex.so:_ZN3hex4lang9Evaluator20evaluateFunctionBodyERKSt6vectorIPNS0_7ASTNodeESaIS4_EE
libimhex.so:_ZN3hex4lang9Evaluator20evaluateFunctionCallEPNS0_19ASTNodeFunctionCallE
libimhex.so:_ZN3hex4lang9Evaluator20evaluateTypeOperatorEPNS0_19ASTNodeTypeOperatorE
libimhex.so:_ZN3hex4lang9Evaluator21setLocalVariableValueESt17basic_string_viewIcSt11char_traitsIcEEPKvm
libimhex.so:_ZN3hex4lang9Evaluator23evaluateScopeResolutionEPNS0_22ASTNodeScopeResolutionE
libimhex.so:_ZN3hex4lang9Evaluator25evaluateTernaryExpressionEPNS0_24ASTNodeTernaryExpressionE
libimhex.so:_ZN3hex4lang9Evaluator26evaluateFunctionDefinitionEPNS0_25ASTNodeFunctionDefinitionE
libimhex.so:_ZN3hex4lang9Evaluator30evaluateMathematicalExpressionEPNS0_24ASTNodeNumericExpressionE
libimhex.so:_ZN3hex4lang9Evaluator8evaluateERKSt6vectorIPNS0_7ASTNodeESaIS4_EE
libimhex.so:_ZN3hex4lang9Validator8validateERKSt6vectorIPNS0_7ASTNodeESaIS4_EE
libimhex.so:_ZN3hex4lang9ValidatorC1Ev
libimhex.so:_ZN3hex4lang9ValidatorC2Ev
libimhex.so:_ZN3hex5crypt10aesDecryptENS0_7AESModeENS0_9KeyLengthERKSt6vectorIhSaIhEESt5arrayIhLm8EES9_S7_
libimhex.so:_ZN3hex5crypt3md5ERPNS_3prv8ProviderEmm
libimhex.so:_ZN3hex5crypt4sha1ERPNS_3prv8ProviderEmm
libimhex.so:_ZN3hex5crypt5crc16ERPNS_3prv8ProviderEmmtt
libimhex.so:_ZN3hex5crypt5crc32ERPNS_3prv8ProviderEmmjj
libimhex.so:_ZN3hex5crypt6sha224ERPNS_3prv8ProviderEmm
libimhex.so:_ZN3hex5crypt6sha256ERPNS_3prv8ProviderEmm
libimhex.so:_ZN3hex5crypt6sha384ERPNS_3prv8ProviderEmm
libimhex.so:_ZN3hex5crypt6sha512ERPNS_3prv8ProviderEmm
libimhex.so:_ZN3hex5crypt8decode64ERKSt6vectorIhSaIhEE
libimhex.so:_ZN3hex5crypt8encode64ERKSt6vectorIhSaIhEE
libimhex.so:_ZN3hex7getPathB5cxx11ENS_9ImHexPathE
libimhex.so:_ZN3hex8ImHexApi9Bookmarks10getEntriesB5cxx11Ev
libimhex.so:_ZN3hex8ImHexApi9Bookmarks3addENS_6RegionESt17basic_string_viewIcSt11char_traitsIcEES6_j
libimhex.so:_ZN3hex8ImHexApi9Bookmarks3addEmmSt17basic_string_viewIcSt11char_traitsIcEES5_j
libimhex.so:_ZN3hex8readFileESt17basic_string_viewIcSt11char_traitsIcEE
libimhex.so:_ZN3hex9LangEntry12loadLanguageESt17basic_string_viewIcSt11char_traitsIcEE
libimhex.so:_ZN3hex9LangEntry21getSupportedLanguagesB5cxx11Ev
libimhex.so:_ZN3hex9LangEntryC1EPKc
libimhex.so:_ZN3hex9LangEntryC1ERKNSt7__cxx1112basic_stringIcSt11char_traitsIcESaIcEEE
libimhex.so:_ZN3hex9LangEntryC1ESt17basic_string_viewIcSt11char_traitsIcEE
libimhex.so:_ZN3hex9LangEntryC2EPKc
libimhex.so:_ZN3hex9LangEntryC2ERKNSt7__cxx1112basic_stringIcSt11char_traitsIcESaIcEEE
libimhex.so:_ZN3hex9LangEntryC2ESt17basic_string_viewIcSt11char_traitsIcEE
libimhex.so:_ZN3hex9to_stringB5cxx11En
libimhex.so:_ZN3hex9to_stringB5cxx11Eo
libimhex.so:_ZN3hexplB5cxx11EOKNS_9LangEntryEOKSt17basic_string_viewIcSt11char_traitsIcEE
libimhex.so:_ZN3hexplB5cxx11EOKNS_9LangEntryEPKc
libimhex.so:_ZN3hexplB5cxx11EOKNS_9LangEntryES2_
libimhex.so:_ZN3hexplB5cxx11EOKSt17basic_string_viewIcSt11char_traitsIcEEOKNS_9LangEntryE
libimhex.so:_ZN3hexplB5cxx11EPKcOKNS_9LangEntryE
libimhex.so:_ZN3hexplEOKNS_9LangEntryEOKNSt7__cxx1112basic_stringIcSt11char_traitsIcESaIcEEE
libimhex.so:_ZN3hexplEOKNSt7__cxx1112basic_stringIcSt11char_traitsIcESaIcEEEOKNS_9LangEntryE
libimhex.so:_ZN5ImGui10BeginChildEPKcRK6ImVec2bi
libimhex.so:_ZN5ImGui10BeginChildEjRK6ImVec2bi
libimhex.so:_ZN5ImGui10BeginComboEPKcS1_i
libimhex.so:_ZN5ImGui10BeginGroupEv
libimhex.so:_ZN5ImGui10BeginPopupEPKci
libimhex.so:_ZN5ImGui10BeginTableEPKciiRK6ImVec2f
libimhex.so:_ZN5ImGui10BulletTextEPKcz
libimhex.so:_ZN5ImGui10ColorEdit3EPKcPfi
libimhex.so:_ZN5ImGui10ColorEdit4EPKcPfi
libimhex.so:_ZN5ImGui10DragFloat2EPKcPffffS1_i
libimhex.so:_ZN5ImGui10DragFloat3EPKcPffffS1_i
libimhex.so:_ZN5ImGui10DragFloat4EPKcPffffS1_i
libimhex.so:_ZN5ImGui10DragScalarEPKciPvfPKvS4_S1_f
libimhex.so:_ZN5ImGui10DragScalarEPKciPvfPKvS4_S1_i
libimhex.so:_ZN5ImGui10EndColumnsEv
libimhex.so:_ZN5ImGui10EndMenuBarEv
libimhex.so:_ZN5ImGui10EndTabItemEv
libimhex.so:_ZN5ImGui10EndTooltipEv
libimhex.so:_ZN5ImGui10GetScrollXEv
libimhex.so:_ZN5ImGui10GetScrollYEv
libimhex.so:_ZN5ImGui10GetVersionEv
libimhex.so:_ZN5ImGui10InitializeEP12ImGuiContext
libimhex.so:_ZN5ImGui10InputFloatEPKcPfffS1_i
libimhex.so:_ZN5ImGui10LabelTextVEPKcS1_P13__va_list_tag
libimhex.so:_ZN5ImGui10LogButtonsEv
libimhex.so:_ZN5ImGui10NextColumnEv
libimhex.so:_ZN5ImGui10RenderTextE6ImVec2PKcS2_b
libimhex.so:_ZN5ImGui10SelectableEPKcPbiRK6ImVec2
libimhex.so:_ZN5ImGui10SelectableEPKcbiRK6ImVec2
libimhex.so:_ZN5ImGui10SetFocusIDEjP11ImGuiWindow
libimhex.so:_ZN5ImGui10SetScrollXEP11ImGuiWindowf
libimhex.so:_ZN5ImGui10SetScrollXEf
libimhex.so:_ZN5ImGui10SetScrollYEP11ImGuiWindowf
libimhex.so:_ZN5ImGui10SetScrollYEf
libimhex.so:_ZN5ImGui10SetTooltipEPKcz
libimhex.so:_ZN5ImGui10SliderInt2EPKcPiiiS1_i
libimhex.so:_ZN5ImGui10SliderInt3EPKcPiiiS1_i
libimhex.so:_ZN5ImGui10SliderInt4EPKcPiiiS1_i
libimhex.so:_ZN5ImGui10TreeNodeExEPKci
libimhex.so:_ZN5ImGui10TreeNodeExEPKciS1_z
libimhex.so:_ZN5ImGui10TreeNodeExEPKviPKcz
libimhex.so:_ZN5ImGui10VSliderIntEPKcRK6ImVec2PiiiS1_i
libimhex.so:_ZN5ImGui11ArrowButtonEPKci
libimhex.so:_ZN5ImGui11BeginDockedEP11ImGuiWindowPb
libimhex.so:_ZN5ImGui11BeginTabBarEPKci
libimhex.so:_ZN5ImGui11BulletTextVEPKcP13__va_list_tag
libimhex.so:_ZN5ImGui11CloseButtonEjRK6ImVec2
libimhex.so:_ZN5ImGui11ColorButtonEPKcRK6ImVec4i6ImVec2
libimhex.so:_ZN5ImGui11DragScalarNEPKciPvifPKvS4_S1_f
libimhex.so:_ZN5ImGui11DragScalarNEPKciPvifPKvS4_S1_i
libimhex.so:_ZN5ImGui11FocusWindowEP11ImGuiWindow
libimhex.so:_ZN5ImGui11GetColorU32ERK6ImVec4
libimhex.so:_ZN5ImGui11GetColorU32Eif
libimhex.so:_ZN5ImGui11GetColorU32Ej
libimhex.so:_ZN5ImGui11GetDrawDataEv
libimhex.so:_ZN5ImGui11GetFontSizeEv
libimhex.so:_ZN5ImGui11GetKeyIndexEi
libimhex.so:_ZN5ImGui11GetMousePosEv
libimhex.so:_ZN5ImGui11ImageButtonEPvRK6ImVec2S3_S3_iRK6ImVec4S6_
libimhex.so:_ZN5ImGui11InputDoubleEPKcPdddS1_i
libimhex.so:_ZN5ImGui11InputFloat2EPKcPfS1_i
libimhex.so:_ZN5ImGui11InputFloat3EPKcPfS1_i
libimhex.so:_ZN5ImGui11InputFloat4EPKcPfS1_i
libimhex.so:_ZN5ImGui11InputScalarEPKciPvPKvS4_S1_i
libimhex.so:_ZN5ImGui11InputTextExEPKcS1_PciRK6ImVec2iPFiP26ImGuiInputTextCallbackDataEPv
libimhex.so:_ZN5ImGui11IsClippedExERK6ImRectjb
libimhex.so:_ZN5ImGui11IsMouseDownEi
libimhex.so:_ZN5ImGui11IsPopupOpenEPKci
libimhex.so:_ZN5ImGui11IsPopupOpenEji
libimhex.so:_ZN5ImGui11KeepAliveIDEj
libimhex.so:_ZN5ImGui11LogToBufferEi
libimhex.so:_ZN5ImGui11OpenPopupExEji
libimhex.so:_ZN5ImGui11PopClipRectEv
libimhex.so:_ZN5ImGui11PopItemFlagEv
libimhex.so:_ZN5ImGui11PopStyleVarEi
libimhex.so:_ZN5ImGui11ProgressBarEfRK6ImVec2PKc
libimhex.so:_ZN5ImGui11RadioButtonEPKcPii
libimhex.so:_ZN5ImGui11RadioButtonEPKcb
libimhex.so:_ZN5ImGui11RenderArrowEP10ImDrawList6ImVec2jif
libimhex.so:_ZN5ImGui11RenderFrameE6ImVec2S0_jbf
libimhex.so:_ZN5ImGui11ScrollbarExERK6ImRectj9ImGuiAxisPfffi
libimhex.so:_ZN5ImGui11SeparatorExEi
libimhex.so:_ZN5ImGui11SetActiveIDEjP11ImGuiWindow
libimhex.so:_ZN5ImGui11SetTooltipVEPKcP13__va_list_tag
libimhex.so:_ZN5ImGui11SliderAngleEPKcPfffS1_i
libimhex.so:_ZN5ImGui11SliderFloatEPKcPfffS1_i
libimhex.so:_ZN5ImGui11SmallButtonEPKc
libimhex.so:_ZN5ImGui11TableEndRowEP10ImGuiTable
libimhex.so:_ZN5ImGui11TableHeaderEPKc
libimhex.so:_ZN5ImGui11TableRemoveEP10ImGuiTable
libimhex.so:_ZN5ImGui11TextColoredERK6ImVec4PKcz
libimhex.so:_ZN5ImGui11TextWrappedEPKcz
libimhex.so:_ZN5ImGui11TreeNodeExVEPKciS1_P13__va_list_tag
libimhex.so:_ZN5ImGui11TreeNodeExVEPKviPKcP13__va_list_tag
libimhex.so:_ZN5ImGui12ActivateItemEj
libimhex.so:_ZN5ImGui12BeginChildExEPKcjRK6ImVec2bi
libimhex.so:_ZN5ImGui12BeginColumnsEPKcii
libimhex.so:_ZN5ImGui12BeginMenuBarEv
libimhex.so:_ZN5ImGui12BeginPopupExEji
libimhex.so:_ZN5ImGui12BeginTabItemEPKcPbi
libimhex.so:_ZN5ImGui12BeginTableExEPKcjiiRK6ImVec2f
libimhex.so:_ZN5ImGui12BeginTooltipEv
libimhex.so:_ZN5ImGui12CalcItemSizeE6ImVec2ff
libimhex.so:_ZN5ImGui12CalcTextSizeEPKcS1_bf
libimhex.so:_ZN5ImGui12ColorPicker3EPKcPfi
libimhex.so:_ZN5ImGui12ColorPicker4EPKcPfiPKf
libimhex.so:_ZN5ImGui12ColorTooltipEPKcPKfi
libimhex.so:_ZN5ImGui12DragBehaviorEjiPvfPKvS2_PKci
libimhex.so:_ZN5ImGui12GetColumnsIDEPKci
libimhex.so:_ZN5ImGui12GetCursorPosEv
libimhex.so:_ZN5ImGui12GetHoveredIDEv
libimhex.so:_ZN5ImGui12GetWindowPosEv
libimhex.so:_ZN5ImGui12InputScalarNEPKciPviPKvS4_S1_i
libimhex.so:_ZN5ImGui12IsItemActiveEv
libimhex.so:_ZN5ImGui12IsItemEditedEv
libimhex.so:_ZN5ImGui12IsKeyPressedEib
libimhex.so:_ZN5ImGui12PopItemWidthEv
libimhex.so:_ZN5ImGui12PushClipRectERK6ImVec2S2_b
libimhex.so:_ZN5ImGui12PushItemFlagEib
libimhex.so:_ZN5ImGui12PushStyleVarEiRK6ImVec2
libimhex.so:_ZN5ImGui12PushStyleVarEif
libimhex.so:_ZN5ImGui12RenderBulletEP10ImDrawList6ImVec2j
libimhex.so:_ZN5ImGui12SetCursorPosERK6ImVec2
libimhex.so:_ZN5ImGui12SetHoveredIDEj
libimhex.so:_ZN5ImGui12SetWindowPosEP11ImGuiWindowRK6ImVec2i
libimhex.so:_ZN5ImGui12SetWindowPosEPKcRK6ImVec2i
libimhex.so:_ZN5ImGui12SetWindowPosERK6ImVec2i
libimhex.so:_ZN5ImGui12ShrinkWidthsEP20ImGuiShrinkWidthItemif
libimhex.so:_ZN5ImGui12SliderFloat2EPKcPfffS1_i
libimhex.so:_ZN5ImGui12SliderFloat3EPKcPfffS1_i
libimhex.so:_ZN5ImGui12SliderFloat4EPKcPfffS1_i
libimhex.so:_ZN5ImGui12SliderScalarEPKciPvPKvS4_S1_f
libimhex.so:_ZN5ImGui12SliderScalarEPKciPvPKvS4_S1_i
libimhex.so:_ZN5ImGui12TabBarAddTabEP11ImGuiTabBariP11ImGuiWindow
libimhex.so:_ZN5ImGui12TableEndCellEP10ImGuiTable
libimhex.so:_ZN5ImGui12TableNextRowEif
libimhex.so:_ZN5ImGui12TextColoredVERK6ImVec4PKcP13__va_list_tag
libimhex.so:_ZN5ImGui12TextDisabledEPKcz
libimhex.so:_ZN5ImGui12TextWrappedVEPKcP13__va_list_tag
libimhex.so:_ZN5ImGui12VSliderFloatEPKcRK6ImVec2PfffS1_i
libimhex.so:_ZN5ImGui13ArrowButtonExEPKci6ImVec2i
libimhex.so:_ZN5ImGui13BeginTabBarExEP11ImGuiTabBarRK6ImRectiP13ImGuiDockNode
libimhex.so:_ZN5ImGui13CalcItemWidthEv
libimhex.so:_ZN5ImGui13CheckboxFlagsEPKcPii
libimhex.so:_ZN5ImGui13CheckboxFlagsEPKcPjj
libimhex.so:_ZN5ImGui13CheckboxFlagsEPKcPxx
libimhex.so:_ZN5ImGui13CheckboxFlagsEPKcPyy
libimhex.so:_ZN5ImGui13ClearActiveIDEv
libimhex.so:_ZN5ImGui13ClearDragDropEv
libimhex.so:_ZN5ImGui13CreateContextEP11ImFontAtlas
libimhex.so:_ZN5ImGui13DataTypeClampEiPvPKvS2_
libimhex.so:_ZN5ImGui13DragIntRange2EPKcPiS2_fiiS1_S1_i
libimhex.so:_ZN5ImGui13EndChildFrameEv
libimhex.so:_ZN5ImGui13GetCursorPosXEv
libimhex.so:_ZN5ImGui13GetCursorPosYEv
libimhex.so:_ZN5ImGui13GetFrameCountEv
libimhex.so:_ZN5ImGui13GetIDWithSeedEPKcS1_j
libimhex.so:_ZN5ImGui13GetPlatformIOEv
libimhex.so:_ZN5ImGui13GetScrollMaxXEv
libimhex.so:_ZN5ImGui13GetScrollMaxYEv
libimhex.so:_ZN5ImGui13GetWindowSizeEv
libimhex.so:_ZN5ImGui13ImageButtonExEjPvRK6ImVec2S3_S3_S3_RK6ImVec4S6_
libimhex.so:_ZN5ImGui13IsItemClickedEi
libimhex.so:_ZN5ImGui13IsItemFocusedEv
libimhex.so:_ZN5ImGui13IsItemHoveredEi
libimhex.so:_ZN5ImGui13IsItemVisibleEv
libimhex.so:_ZN5ImGui13IsKeyReleasedEi
libimhex.so:_ZN5ImGui13IsRectVisibleERK6ImVec2
libimhex.so:_ZN5ImGui13IsRectVisibleERK6ImVec2S2_
libimhex.so:_ZN5ImGui13IsWindowAboveEP11ImGuiWindowS1_
libimhex.so:_ZN5ImGui13ItemHoverableERK6ImRectj
libimhex.so:_ZN5ImGui13ListBoxFooterEv
libimhex.so:_ZN5ImGui13ListBoxHeaderEPKcRK6ImVec2
libimhex.so:_ZN5ImGui13ListBoxHeaderEPKcii
libimhex.so:_ZN5ImGui13NavInitWindowEP11ImGuiWindowb
libimhex.so:_ZN5ImGui13PlotHistogramEPKcPFfPviES2_iiS1_ff6ImVec2
libimhex.so:_ZN5ImGui13PlotHistogramEPKcPKfiiS1_ff6ImVec2i
libimhex.so:_ZN5ImGui13PopFocusScopeEv
libimhex.so:_ZN5ImGui13PopStyleColorEi
libimhex.so:_ZN5ImGui13PushItemWidthEf
libimhex.so:_ZN5ImGui13SetCursorPosXEf
libimhex.so:_ZN5ImGui13SetCursorPosYEf
libimhex.so:_ZN5ImGui13SetWindowDockEP11ImGuiWindowji
libimhex.so:_ZN5ImGui13SetWindowSizeEP11ImGuiWindowRK6ImVec2i
libimhex.so:_ZN5ImGui13SetWindowSizeEPKcRK6ImVec2i
libimhex.so:_ZN5ImGui13SetWindowSizeERK6ImVec2i
libimhex.so:_ZN5ImGui13SliderScalarNEPKciPviPKvS4_S1_f
libimhex.so:_ZN5ImGui13SliderScalarNEPKciPviPKvS4_S1_i
libimhex.so:_ZN5ImGui13TabItemButtonEPKci
libimhex.so:_ZN5ImGui13TableBeginRowEP10ImGuiTable
libimhex.so:_ZN5ImGui13TableFindByIDEj
libimhex.so:_ZN5ImGui13TempInputTextERK6ImRectjPKcPcii
libimhex.so:_ZN5ImGui13TextDisabledVEPKcP13__va_list_tag
libimhex.so:_ZN5ImGui13VSliderScalarEPKcRK6ImVec2iPvPKvS7_S1_i
libimhex.so:_ZN5ImGui14AddContextHookEP12ImGuiContextPK16ImGuiContextHook
libimhex.so:_ZN5ImGui14BeginTooltipExEii
libimhex.so:_ZN5ImGui14ButtonBehaviorERK6ImRectjPbS3_i
libimhex.so:_ZN5ImGui14CollapseButtonEjRK6ImVec2P13ImGuiDockNode
libimhex.so:_ZN5ImGui14DebugNodeTableEP10ImGuiTable
libimhex.so:_ZN5ImGui14DestroyContextEP12ImGuiContext
libimhex.so:_ZN5ImGui14EndMainMenuBarEv
libimhex.so:_ZN5ImGui14FindWindowByIDEj
libimhex.so:_ZN5ImGui14GetColumnIndexEv
libimhex.so:_ZN5ImGui14GetColumnWidthEi
libimhex.so:_ZN5ImGui14GetFrameHeightEv
libimhex.so:_ZN5ImGui14GetItemRectMaxEv
libimhex.so:_ZN5ImGui14GetItemRectMinEv
libimhex.so:_ZN5ImGui14GetMouseCursorEv
libimhex.so:_ZN5ImGui14GetWindowWidthEv
libimhex.so:_ZN5ImGui14IsAnyMouseDownEv
libimhex.so:_ZN5ImGui14IsMouseClickedEib
libimhex.so:_ZN5ImGui14IsWindowDockedEv
libimhex.so:_ZN5ImGui14LogToClipboardEi
libimhex.so:_ZN5ImGui14MarkItemEditedEj
libimhex.so:_ZN5ImGui14PopTextWrapPosEv
libimhex.so:_ZN5ImGui14PushFocusScopeEj
libimhex.so:_ZN5ImGui14PushOverrideIDEj
libimhex.so:_ZN5ImGui14PushStyleColorEiRK6ImVec4
libimhex.so:_ZN5ImGui14PushStyleColorEij
libimhex.so:_ZN5ImGui14SetColumnWidthEif
libimhex.so:_ZN5ImGui14SetCurrentFontEP6ImFont
libimhex.so:_ZN5ImGui14SetMouseCursorEi
libimhex.so:_ZN5ImGui14SetScrollHereXEf
libimhex.so:_ZN5ImGui14SetScrollHereYEf
libimhex.so:_ZN5ImGui14SetWindowFocusEPKc
libimhex.so:_ZN5ImGui14SetWindowFocusEv
libimhex.so:_ZN5ImGui14SliderBehaviorERK6ImRectjiPvPKvS5_PKciPS0_
libimhex.so:_ZN5ImGui14TabBarCloseTabEP11ImGuiTabBarP12ImGuiTabItem
libimhex.so:_ZN5ImGui14TableBeginCellEP10ImGuiTablei
libimhex.so:_ZN5ImGui15BeginChildFrameEjRK6ImVec2i
libimhex.so:_ZN5ImGui15BeginPopupModalEPKcPbi
libimhex.so:_ZN5ImGui15DataTypeApplyOpEiiPvPKvS2_
libimhex.so:_ZN5ImGui15DataTypeCompareEiPKvS1_
libimhex.so:_ZN5ImGui15DataTypeGetInfoEi
libimhex.so:_ZN5ImGui15DebugNodeTabBarEP11ImGuiTabBarPKc
libimhex.so:_ZN5ImGui15DebugNodeWindowEP11ImGuiWindowPKc
libimhex.so:_ZN5ImGui15DragFloatRange2EPKcPfS2_fffS1_S1_i
libimhex.so:_ZN5ImGui15GetColumnOffsetEi
libimhex.so:_ZN5ImGui15GetColumnsCountEv
libimhex.so:_ZN5ImGui15GetItemRectSizeEv
libimhex.so:_ZN5ImGui15GetMainViewportEv
libimhex.so:_ZN5ImGui15GetStateStorageEv
libimhex.so:_ZN5ImGui15GetWindowDockIDEv
libimhex.so:_ZN5ImGui15GetWindowHeightEv
libimhex.so:_ZN5ImGui15InvisibleButtonEPKcRK6ImVec2i
libimhex.so:_ZN5ImGui15IsAnyItemActiveEv
libimhex.so:_ZN5ImGui15IsItemActivatedEv
libimhex.so:_ZN5ImGui15IsMouseDraggingEif
libimhex.so:_ZN5ImGui15IsMousePosValidEPK6ImVec2
libimhex.so:_ZN5ImGui15IsMouseReleasedEi
libimhex.so:_ZN5ImGui15IsWindowChildOfEP11ImGuiWindowS1_
libimhex.so:_ZN5ImGui15IsWindowFocusedEi
libimhex.so:_ZN5ImGui15IsWindowHoveredEi
libimhex.so:_ZN5ImGui15LogRenderedTextEPK6ImVec2PKcS4_
libimhex.so:_ZN5ImGui15PopButtonRepeatEv
libimhex.so:_ZN5ImGui15PushTextWrapPosEf
libimhex.so:_ZN5ImGui15RenderCheckMarkEP10ImDrawList6ImVec2jf
libimhex.so:_ZN5ImGui15SetColumnOffsetEif
libimhex.so:_ZN5ImGui15SetLastItemDataEP11ImGuiWindowjiRK6ImRect
libimhex.so:_ZN5ImGui15SetNextItemOpenEbi
libimhex.so:_ZN5ImGui15SetStateStorageEP12ImGuiStorage
libimhex.so:_ZN5ImGui15StyleColorsDarkEP10ImGuiStyle
libimhex.so:_ZN5ImGui15TabBarRemoveTabEP11ImGuiTabBarj
libimhex.so:_ZN5ImGui15TabItemCalcSizeEPKcb
libimhex.so:_ZN5ImGui15TableHeadersRowEv
libimhex.so:_ZN5ImGui15TableNextColumnEv
libimhex.so:_ZN5ImGui15TableSetBgColorEiji
libimhex.so:_ZN5ImGui15TempInputScalarERK6ImRectjPKciPvS4_PKvS7_
libimhex.so:_ZN5ImGui15TextUnformattedEPKcS1_
libimhex.so:_ZN5ImGui16BeginMainMenuBarEv
libimhex.so:_ZN5ImGui16CalcListClippingEifPiS0_
libimhex.so:_ZN5ImGui16CallContextHooksEP12ImGuiContext20ImGuiContextHookType
libimhex.so:_ZN5ImGui16ClearIniSettingsEv
libimhex.so:_ZN5ImGui16CollapsingHeaderEPKcPbi
libimhex.so:_ZN5ImGui16CollapsingHeaderEPKci
libimhex.so:_ZN5ImGui16DebugNodeColumnsEP15ImGuiOldColumns
libimhex.so:_ZN5ImGui16DebugNodeStorageEP12ImGuiStoragePKc
libimhex.so:_ZN5ImGui16FindViewportByIDEj
libimhex.so:_ZN5ImGui16FindWindowByNameEPKc
libimhex.so:_ZN5ImGui16GetClipboardTextEv
libimhex.so:_ZN5ImGui16IsAnyItemFocusedEv
libimhex.so:_ZN5ImGui16IsAnyItemHoveredEv
libimhex.so:_ZN5ImGui16PushButtonRepeatEb
libimhex.so:_ZN5ImGui16SetClipboardTextEPKc
libimhex.so:_ZN5ImGui16SetNextItemWidthEf
libimhex.so:_ZN5ImGui16SetNextWindowPosERK6ImVec2iS2_
libimhex.so:_ZN5ImGui16SetTabItemClosedEPKc
libimhex.so:_ZN5ImGui16SplitterBehaviorERK6ImRectj9ImGuiAxisPfS4_ffff
libimhex.so:_ZN5ImGui16StyleColorsLightEP10ImGuiStyle
libimhex.so:_ZN5ImGui16TableDrawBordersEP10ImGuiTable
libimhex.so:_ZN5ImGui16TableGetRowIndexEv
libimhex.so:_ZN5ImGui16TableSetupColumnEPKcifj
libimhex.so:_ZN5ImGui16TreeNodeBehaviorEjiPKcS1_
libimhex.so:_ZN5ImGui17CloseCurrentPopupEv
libimhex.so:_ZN5ImGui17ClosePopupToLevelEib
libimhex.so:_ZN5ImGui17DebugNodeDockNodeEP13ImGuiDockNodePKc
libimhex.so:_ZN5ImGui17DebugNodeDrawListEP11ImGuiWindowP14ImGuiViewportPPK10ImDrawListPKc
libimhex.so:_ZN5ImGui17DebugNodeViewportEP14ImGuiViewportP
libimhex.so:_ZN5ImGui17DockBuilderFinishEj
libimhex.so:_ZN5ImGui17EndDragDropSourceEv
libimhex.so:_ZN5ImGui17EndDragDropTargetEv
libimhex.so:_ZN5ImGui17GetCurrentContextEv
libimhex.so:_ZN5ImGui17GetCursorStartPosEv
libimhex.so:_ZN5ImGui17GetMouseDragDeltaEif
libimhex.so:_ZN5ImGui17GetNavInputAmountEi18ImGuiInputReadMode
libimhex.so:_ZN5ImGui17GetStyleColorNameEi
libimhex.so:_ZN5ImGui17GetStyleColorVec4Ei
libimhex.so:_ZN5ImGui17GetTextLineHeightEv
libimhex.so:_ZN5ImGui17GetWindowDpiScaleEv
libimhex.so:_ZN5ImGui17GetWindowDrawListEv
libimhex.so:_ZN5ImGui17GetWindowResizeIDEP11ImGuiWindowi
libimhex.so:_ZN5ImGui17GetWindowViewportEv
libimhex.so:_ZN5ImGui17InputTextWithHintEPKcS1_PcmiPFiP26ImGuiInputTextCallbackDataEPv
libimhex.so:_ZN5ImGui17IsItemDeactivatedEv
libimhex.so:_ZN5ImGui17IsItemToggledOpenEv
libimhex.so:_ZN5ImGui17IsWindowAppearingEv
libimhex.so:_ZN5ImGui17IsWindowCollapsedEv
libimhex.so:_ZN5ImGui17RenderFrameBorderE6ImVec2S0_f
libimhex.so:_ZN5ImGui17RenderMouseCursorEP10ImDrawList6ImVec2fijjj
libimhex.so:_ZN5ImGui17RenderTextClippedERK6ImVec2S2_PKcS4_PS1_S2_PK6ImRect
libimhex.so:_ZN5ImGui17RenderTextWrappedE6ImVec2PKcS2_f
libimhex.so:_ZN5ImGui17SetCurrentContextEP12ImGuiContext
libimhex.so:_ZN5ImGui17SetNextWindowSizeERK6ImVec2i
libimhex.so:_ZN5ImGui17SetScrollFromPosXEP11ImGuiWindowff
libimhex.so:_ZN5ImGui17SetScrollFromPosXEff
libimhex.so:_ZN5ImGui17SetScrollFromPosYEP11ImGuiWindowff
libimhex.so:_ZN5ImGui17SetScrollFromPosYEff
libimhex.so:_ZN5ImGui17ShowMetricsWindowEPb
libimhex.so:_ZN5ImGui17TabBarFindTabByIDEP11ImGuiTabBarj
libimhex.so:_ZN5ImGui17TabItemBackgroundEP10ImDrawListRK6ImRectij
libimhex.so:_ZN5ImGui17TableGetSortSpecsEv
libimhex.so:_ZN5ImGui17TableLoadSettingsEP10ImGuiTable
libimhex.so:_ZN5ImGui17TableSaveSettingsEP10ImGuiTable
libimhex.so:_ZN5ImGui17TableUpdateLayoutEP10ImGuiTable
libimhex.so:_ZN5ImGui18DockBuilderAddNodeEji
libimhex.so:_ZN5ImGui18DockBuilderGetNodeEj
libimhex.so:_ZN5ImGui18FindWindowSettingsEj
libimhex.so:_ZN5ImGui18GetCursorScreenPosEv
libimhex.so:_ZN5ImGui18GetDragDropPayloadEv
libimhex.so:_ZN5ImGui18InputTextMultilineEPKcPcmRK6ImVec2iPFiP26ImGuiInputTextCallbackDataEPv
libimhex.so:_ZN5ImGui18PushColumnClipRectEi
libimhex.so:_ZN5ImGui18RenderNavHighlightERK6ImRectji
libimhex.so:_ZN5ImGui18RenderTextEllipsisEP10ImDrawListRK6ImVec2S4_ffPKcS6_PS3_
libimhex.so:_ZN5ImGui18SetCursorScreenPosERK6ImVec2
libimhex.so:_ZN5ImGui18SetDragDropPayloadEPKcPKvmi
libimhex.so:_ZN5ImGui18SetNextWindowClassEPK16ImGuiWindowClass
libimhex.so:_ZN5ImGui18SetNextWindowFocusEv
libimhex.so:_ZN5ImGui18SetWindowCollapsedEP11ImGuiWindowbi
libimhex.so:_ZN5ImGui18SetWindowCollapsedEPKcbi
libimhex.so:_ZN5ImGui18SetWindowCollapsedEbi
libimhex.so:_ZN5ImGui18SetWindowFontScaleEf
libimhex.so:_ZN5ImGui18ShadeVertsLinearUVEP10ImDrawListiiRK6ImVec2S4_S4_S4_b
libimhex.so:_ZN5ImGui18StyleColorsClassicEP10ImGuiStyle
libimhex.so:_ZN5ImGui18TabBarQueueReorderEP11ImGuiTabBarPK12ImGuiTabItemi
libimhex.so:_ZN5ImGui18TableGetCellBgRectEPK10ImGuiTablei
libimhex.so:_ZN5ImGui18TableGetColumnNameEPK10ImGuiTablei
libimhex.so:_ZN5ImGui18TableGetColumnNameEi
libimhex.so:_ZN5ImGui18TableResetSettingsEP10ImGuiTable
libimhex.so:_ZN5ImGui18TableUpdateBordersEP10ImGuiTable
libimhex.so:_ZN5ImGui18TreePushOverrideIDEj
libimhex.so:_ZN5ImGui19BeginDragDropSourceEi
libimhex.so:_ZN5ImGui19BeginDragDropTargetEv
libimhex.so:_ZN5ImGui19CalcWrapWidthForPosERK6ImVec2f
libimhex.so:_ZN5ImGui19CaptureMouseFromAppEb
libimhex.so:_ZN5ImGui19DockBuilderCopyNodeEjjP8ImVectorIjE
libimhex.so:_ZN5ImGui19DockContextShutdownEP12ImGuiContext
libimhex.so:_ZN5ImGui19FindOrCreateColumnsEP11ImGuiWindowj
libimhex.so:_ZN5ImGui19FindRenderedTextEndEPKcS1_
libimhex.so:_ZN5ImGui19FindSettingsHandlerEPKc
libimhex.so:_ZN5ImGui19GetContentRegionMaxEv
libimhex.so:_ZN5ImGui19GetKeyPressedAmountEiff
libimhex.so:_ZN5ImGui19GetNavInputAmount2dEi18ImGuiInputReadModeff
libimhex.so:_ZN5ImGui19IsMouseHoveringRectERK6ImVec2S2_b
libimhex.so:_ZN5ImGui19RenderArrowDockMenuEP10ImDrawList6ImVec2fj
libimhex.so:_ZN5ImGui19RenderTextClippedExEP10ImDrawListRK6ImVec2S4_PKcS6_PS3_S4_PK6ImRect
libimhex.so:_ZN5ImGui19ResetMouseDragDeltaEi
libimhex.so:_ZN5ImGui19SetColorEditOptionsEi
libimhex.so:_ZN5ImGui19SetItemAllowOverlapEv
libimhex.so:_ZN5ImGui19SetItemDefaultFocusEv
libimhex.so:_ZN5ImGui19SetNavIDWithRectRelEjijRK6ImRect
libimhex.so:_ZN5ImGui19SetNextWindowDockIDEji
libimhex.so:_ZN5ImGui19SetNextWindowScrollERK6ImVec2
libimhex.so:_ZN5ImGui19TableGetColumnCountEv
libimhex.so:_ZN5ImGui19TableGetColumnFlagsEi
libimhex.so:_ZN5ImGui19TableGetColumnIndexEv
libimhex.so:_ZN5ImGui19TableSetColumnIndexEi
libimhex.so:_ZN5ImGui19TableSetColumnWidthEif
libimhex.so:_ZN5ImGui19TableSettingsCreateEji
libimhex.so:_ZN5ImGui19TableSortSpecsBuildEP10ImGuiTable
libimhex.so:_ZN5ImGui20ColorConvertHSVtoRGBEfffRfS0_S0_
libimhex.so:_ZN5ImGui20ColorConvertRGBtoHSVEfffRfS0_S0_
libimhex.so:_ZN5ImGui20DataTypeFormatStringEPciiPKvPKc
libimhex.so:_ZN5ImGui20DebugNodeWindowsListEP8ImVectorIP11ImGuiWindowEPKc
libimhex.so:_ZN5ImGui20DockBuilderSplitNodeEjifPjS0_
libimhex.so:_ZN5ImGui20DockContextGenNodeIDEP12ImGuiContext
libimhex.so:_ZN5ImGui20DockContextQueueDockEP12ImGuiContextP11ImGuiWindowP13ImGuiDockNodeS3_ifb
libimhex.so:_ZN5ImGui20GetMergedKeyModFlagsEv
libimhex.so:_ZN5ImGui20GetTopMostPopupModalEv
libimhex.so:_ZN5ImGui20GetWindowScrollbarIDEP11ImGuiWindow9ImGuiAxis
libimhex.so:_ZN5ImGui20IsMouseDoubleClickedEi
libimhex.so:_ZN5ImGui20IsWindowNavFocusableEP11ImGuiWindow
libimhex.so:_ZN5ImGui20MarkIniSettingsDirtyEP11ImGuiWindow
libimhex.so:_ZN5ImGui20MarkIniSettingsDirtyEv
libimhex.so:_ZN5ImGui20NavMoveRequestCancelEv
libimhex.so:_ZN5ImGui20OpenPopupOnItemClickEPKci
libimhex.so:_ZN5ImGui20PopColumnsBackgroundEv
libimhex.so:_ZN5ImGui20PushMultiItemsWidthsEif
libimhex.so:_ZN5ImGui20SetKeyboardFocusHereEi
libimhex.so:_ZN5ImGui20SetNextWindowBgAlphaEf
libimhex.so:_ZN5ImGui20SetWindowHitTestHoleEP11ImGuiWindowRK6ImVec2S4_
libimhex.so:_ZN5ImGui20TabBarProcessReorderEP11ImGuiTabBar
libimhex.so:_ZN5ImGui20TableBeginInitMemoryEP10ImGuiTablei
libimhex.so:_ZN5ImGui20TableDrawContextMenuEP10ImGuiTable
libimhex.so:_ZN5ImGui20TableOpenContextMenuEi
libimhex.so:_ZN5ImGui21AcceptDragDropPayloadEPKci
libimhex.so:_ZN5ImGui21BeginPopupContextItemEPKci
libimhex.so:_ZN5ImGui21BeginPopupContextVoidEPKci
libimhex.so:_ZN5ImGui21ClosePopupsOverWindowEP11ImGuiWindowb
libimhex.so:_ZN5ImGui21ColorEditOptionsPopupEPKfi
libimhex.so:_ZN5ImGui21DestroyPlatformWindowEP14ImGuiViewportP
libimhex.so:_ZN5ImGui21DockBuilderDockWindowEPKcj
libimhex.so:_ZN5ImGui21DockBuilderRemoveNodeEj
libimhex.so:_ZN5ImGui21DockBuilderSetNodePosEj6ImVec2
libimhex.so:_ZN5ImGui21DockContextClearNodesEP12ImGuiContextjb
libimhex.so:_ZN5ImGui21DockContextInitializeEP12ImGuiContext
libimhex.so:_ZN5ImGui21DockSpaceOverViewportEP13ImGuiViewportiPK16ImGuiWindowClass
libimhex.so:_ZN5ImGui21FocusableItemRegisterEP11ImGuiWindowj
libimhex.so:_ZN5ImGui21GetBackgroundDrawListEP13ImGuiViewport
libimhex.so:_ZN5ImGui21GetBackgroundDrawListEv
libimhex.so:_ZN5ImGui21GetContentRegionAvailEv
libimhex.so:_ZN5ImGui21GetDrawListSharedDataEv
libimhex.so:_ZN5ImGui21GetForegroundDrawListEP13ImGuiViewport
libimhex.so:_ZN5ImGui21GetForegroundDrawListEv
libimhex.so:_ZN5ImGui21NavMoveRequestForwardEiiRK6ImRecti
libimhex.so:_ZN5ImGui21PopAllowKeyboardFocusEv
libimhex.so:_ZN5ImGui21PushColumnsBackgroundEv
libimhex.so:_ZN5ImGui21RenderArrowPointingAtEP10ImDrawList6ImVec2S2_ij
libimhex.so:_ZN5ImGui21SaveIniSettingsToDiskEPKc
libimhex.so:_ZN5ImGui21SetAllocatorFunctionsEPFPvmS0_EPFvS0_S0_ES0_
libimhex.so:_ZN5ImGui21SetNextWindowViewportEj
libimhex.so:_ZN5ImGui21TableGetBoundSettingsEP10ImGuiTable
libimhex.so:_ZN5ImGui21TableGetHoveredColumnEv
libimhex.so:_ZN5ImGui21TableSettingsFindByIDEj
libimhex.so:_ZN5ImGui21UpdatePlatformWindowsEv
libimhex.so:_ZN5ImGui22CaptureKeyboardFromAppEb
libimhex.so:_ZN5ImGui22DebugNodeTableSettingsEP18ImGuiTableSettings
libimhex.so:_ZN5ImGui22DestroyPlatformWindowsEv
libimhex.so:_ZN5ImGui22DockBuilderSetNodeSizeEj6ImVec2
libimhex.so:_ZN5ImGui22DockNodeEndAmendTabBarEv
libimhex.so:_ZN5ImGui22GetContentRegionMaxAbsEv
libimhex.so:_ZN5ImGui22GetFontTexUvWhitePixelEv
libimhex.so:_ZN5ImGui22GetWindowScrollbarRectEP11ImGuiWindow9ImGuiAxis
libimhex.so:_ZN5ImGui22IsItemToggledSelectionEv
libimhex.so:_ZN5ImGui22PushAllowKeyboardFocusEb
libimhex.so:_ZN5ImGui22RenderRectFilledRangeHEP10ImDrawListRK6ImRectjfff
libimhex.so:_ZN5ImGui22ScaleWindowsInViewportEP14ImGuiViewportPf
libimhex.so:_ZN5ImGui22SetItemUsingMouseWheelEv
libimhex.so:_ZN5ImGui22SetNextWindowCollapsedEbi
libimhex.so:_ZN5ImGui22StartMouseMovingWindowEP11ImGuiWindow
libimhex.so:_ZN5ImGui22TableGcCompactSettingsEv
libimhex.so:_ZN5ImGui22TableGetColumnResizeIDEPK10ImGuiTableii
libimhex.so:_ZN5ImGui22TableGetMaxColumnWidthEPK10ImGuiTablei
libimhex.so:_ZN5ImGui22TableMergeDrawChannelsEP10ImGuiTable
libimhex.so:_ZN5ImGui22TableSetupDrawChannelsEP10ImGuiTable
libimhex.so:_ZN5ImGui22TableSetupScrollFreezeEii
libimhex.so:_ZN5ImGui22TableSortSpecsSanitizeEP10ImGuiTable
libimhex.so:_ZN5ImGui22TreeNodeBehaviorIsOpenEji
libimhex.so:_ZN5ImGui23AlignTextToFramePaddingEv
libimhex.so:_ZN5ImGui23BeginPopupContextWindowEPKci
libimhex.so:_ZN5ImGui23BringWindowToFocusFrontEP11ImGuiWindow
libimhex.so:_ZN5ImGui23ColorConvertFloat4ToU32ERK6ImVec4
libimhex.so:_ZN5ImGui23ColorConvertU32ToFloat4Ej
libimhex.so:_ZN5ImGui23ColorPickerOptionsPopupEPKfi
libimhex.so:_ZN5ImGui23CreateNewWindowSettingsEPKc
libimhex.so:_ZN5ImGui23DataTypeApplyOpFromTextEPKcS1_iPvS1_
libimhex.so:_ZN5ImGui23DebugNodeWindowSettingsEP19ImGuiWindowSettings
libimhex.so:_ZN5ImGui23DockContextRebuildNodesEP12ImGuiContext
libimhex.so:_ZN5ImGui23FocusableItemUnregisterEP11ImGuiWindow
libimhex.so:_ZN5ImGui23GetColumnNormFromOffsetEPK15ImGuiOldColumnsf
libimhex.so:_ZN5ImGui23GetColumnOffsetFromNormEPK15ImGuiOldColumnsf
libimhex.so:_ZN5ImGui23LoadIniSettingsFromDiskEPKc
libimhex.so:_ZN5ImGui23SaveIniSettingsToMemoryEPm
libimhex.so:_ZN5ImGui23TableBeginApplyRequestsEP10ImGuiTable
libimhex.so:_ZN5ImGui23TableGetColumnWidthAutoEP10ImGuiTableP16ImGuiTableColumn
libimhex.so:_ZN5ImGui23TableGetHeaderRowHeightEv
libimhex.so:_ZN5ImGui24BringWindowToDisplayBackEP11ImGuiWindow
libimhex.so:_ZN5ImGui24DockBuilderCopyDockSpaceEjjP8ImVectorIPKcE
libimhex.so:_ZN5ImGui24DockNodeBeginAmendTabBarEP13ImGuiDockNode
libimhex.so:_ZN5ImGui24IsMouseDragPastThresholdEif
libimhex.so:_ZN5ImGui24RenderRectFilledWithHoleEP10ImDrawList6ImRectS2_jf
libimhex.so:_ZN5ImGui24SetNextWindowContentSizeERK6ImVec2
libimhex.so:_ZN5ImGui25BeginDragDropTargetCustomERK6ImRectj
libimhex.so:_ZN5ImGui25BringWindowToDisplayFrontEP11ImGuiWindow
libimhex.so:_ZN5ImGui25CalcTypematicRepeatAmountEffff
libimhex.so:_ZN5ImGui25CalcWindowNextAutoFitSizeEP11ImGuiWindow
libimhex.so:_ZN5ImGui25ErrorCheckEndFrameRecoverEPFvPvPKczES0_
libimhex.so:_ZN5ImGui25FindBestWindowPosForPopupEP11ImGuiWindow
libimhex.so:_ZN5ImGui25GetFrameHeightWithSpacingEv
libimhex.so:_ZN5ImGui25GetTreeNodeToLabelSpacingEv
libimhex.so:_ZN5ImGui25GetWindowContentRegionMaxEv
libimhex.so:_ZN5ImGui25GetWindowContentRegionMinEv
libimhex.so:_ZN5ImGui25LoadIniSettingsFromMemoryEPKcm
libimhex.so:_ZN5ImGui25NavMoveRequestTryWrappingEP11ImGuiWindowi
libimhex.so:_ZN5ImGui25ScrollToBringRectIntoViewEP11ImGuiWindowRK6ImRect
libimhex.so:_ZN5ImGui25TablePopBackgroundChannelEv
libimhex.so:_ZN5ImGui26DockContextQueueUndockNodeEP12ImGuiContextP13ImGuiDockNode
libimhex.so:_ZN5ImGui26FindOrCreateWindowSettingsEPKc
libimhex.so:_ZN5ImGui26FocusTopMostWindowUnderOneEP11ImGuiWindowS1_
libimhex.so:_ZN5ImGui26GetWindowAllowedExtentRectEP11ImGuiWindow
libimhex.so:_ZN5ImGui26IsItemDeactivatedAfterEditEv
libimhex.so:_ZN5ImGui26TabItemLabelAndCloseButtonEP10ImDrawListRK6ImRecti6ImVec2PKcjjbPbS8_
libimhex.so:_ZN5ImGui26TablePushBackgroundChannelEv
libimhex.so:_ZN5ImGui26TableSetColumnWidthAutoAllEP10ImGuiTable
libimhex.so:_ZN5ImGui26TranslateWindowsInViewportEP14ImGuiViewportPRK6ImVec2S4_
libimhex.so:_ZN5ImGui27BeginDockableDragDropSourceEP11ImGuiWindow
libimhex.so:_ZN5ImGui27BeginDockableDragDropTargetEP11ImGuiWindow
libimhex.so:_ZN5ImGui27FindBestWindowPosForPopupExERK6ImVec2S2_PiRK6ImRectS6_24ImGuiPopupPositionPolicy
libimhex.so:_ZN5ImGui27GetWindowContentRegionWidthEv
libimhex.so:_ZN5ImGui27TableFixColumnSortDirectionEP10ImGuiTableP16ImGuiTableColumn
libimhex.so:_ZN5ImGui27TableSetColumnSortDirectionEiib
libimhex.so:_ZN5ImGui27TableSettingsInstallHandlerEP12ImGuiContext
libimhex.so:_ZN5ImGui28DockContextQueueUndockWindowEP12ImGuiContextP11ImGuiWindow
libimhex.so:_ZN5ImGui28FindViewportByPlatformHandleEPv
libimhex.so:_ZN5ImGui28GetTextLineHeightWithSpacingEv
libimhex.so:_ZN5ImGui28GetWindowAlwaysWantOwnTabBarEP11ImGuiWindow
libimhex.so:_ZN5ImGui28NavMoveRequestButNoResultYetEv
libimhex.so:_ZN5ImGui28RenderPlatformWindowsDefaultEPvS0_
libimhex.so:_ZN5ImGui28SetNextWindowSizeConstraintsERK6ImVec2S2_PFvP21ImGuiSizeCallbackDataEPv
libimhex.so:_ZN5ImGui28StartMouseMovingWindowOrNodeEP11ImGuiWindowP13ImGuiDockNodeb
libimhex.so:_ZN5ImGui29DockBuilderCopyWindowSettingsEPKcS1_
libimhex.so:_ZN5ImGui29GcAwakeTransientWindowBuffersEP11ImGuiWindow
libimhex.so:_ZN5ImGui29GcCompactTransientMiscBuffersEv
libimhex.so:_ZN5ImGui29TableSetColumnWidthAutoSingleEP10ImGuiTablei
libimhex.so:_ZN5ImGui30DebugCheckVersionAndDataLayoutEPKcmmmmmm
libimhex.so:_ZN5ImGui30IsDragDropPayloadBeingAcceptedEv
libimhex.so:_ZN5ImGui30TableGcCompactTransientBuffersEP10ImGuiTable
libimhex.so:_ZN5ImGui30UpdateWindowParentAndRootLinksEP11ImGuiWindowiS1_
libimhex.so:_ZN5ImGui31DockBuilderRemoveNodeChildNodesEj
libimhex.so:_ZN5ImGui31GcCompactTransientWindowBuffersEP11ImGuiWindow
libimhex.so:_ZN5ImGui31TableGetColumnNextSortDirectionEP16ImGuiTableColumn
libimhex.so:_ZN5ImGui31UpdateMouseMovingWindowEndFrameEv
libimhex.so:_ZN5ImGui31UpdateMouseMovingWindowNewFrameEv
libimhex.so:_ZN5ImGui32DockContextCalcDropPosForDockingEP11ImGuiWindowP13ImGuiDockNodeS1_ibP6ImVec2
libimhex.so:_ZN5ImGui32DockContextNewFrameUpdateDockingEP12ImGuiContext
libimhex.so:_ZN5ImGui32GetMousePosOnOpeningCurrentPopupEv
libimhex.so:_ZN5ImGui33SetWindowClipRectBeforeSetChannelEP11ImGuiWindowRK6ImRect
libimhex.so:_ZN5ImGui33TableUpdateColumnsWeightFromWidthEP10ImGuiTable
libimhex.so:_ZN5ImGui34DockBuilderRemoveNodeDockedWindowsEjb
libimhex.so:_ZN5ImGui34DockContextNewFrameUpdateUndockingEP12ImGuiContext
libimhex.so:_ZN5ImGui34UpdateHoveredWindowAndCaptureFlagsEv
libimhex.so:_ZN5ImGui36RenderColorRectWithAlphaCheckerboardEP10ImDrawList6ImVec2S2_jfS2_fi
libimhex.so:_ZN5ImGui38DebugNodeDrawCmdShowMeshAndBoundingBoxEP10ImDrawListPKS0_PK9ImDrawCmdbb
libimhex.so:_ZN5ImGui38ShadeVertsLinearColorGradientKeepAlphaEP10ImDrawListii6ImVec2S2_jj
libimhex.so:_ZN5ImGui3EndEv
libimhex.so:_ZN5ImGui48TabBarFindMostRecentlySelectedTabForActiveWindowEP11ImGuiTabBar
libimhex.so:_ZN5ImGui4TextEPKcz
libimhex.so:_ZN5ImGui5BeginEPKcPbi
libimhex.so:_ZN5ImGui5ComboEPKcPiPFbPviPS1_ES3_ii
libimhex.so:_ZN5ImGui5ComboEPKcPiPKS1_ii
libimhex.so:_ZN5ImGui5ComboEPKcPiS1_i
libimhex.so:_ZN5ImGui5DummyERK6ImVec2
libimhex.so:_ZN5ImGui5GetIDEPKc
libimhex.so:_ZN5ImGui5GetIDEPKcS1_
libimhex.so:_ZN5ImGui5GetIDEPKv
libimhex.so:_ZN5ImGui5GetIOEv
libimhex.so:_ZN5ImGui5ImageEPvRK6ImVec2S3_S3_RK6ImVec4S6_
libimhex.so:_ZN5ImGui5PopIDEv
libimhex.so:_ZN5ImGui5TextVEPKcP13__va_list_tag
libimhex.so:_ZN5ImGui5ValueEPKcb
libimhex.so:_ZN5ImGui5ValueEPKcfS1_
libimhex.so:_ZN5ImGui5ValueEPKci
libimhex.so:_ZN5ImGui5ValueEPKcj
libimhex.so:_ZN5ImGui6BulletEv
libimhex.so:_ZN5ImGui6ButtonEPKcRK6ImVec2
libimhex.so:_ZN5ImGui6IndentEf
libimhex.so:_ZN5ImGui6PlotExE13ImGuiPlotTypePKcPFfPviES3_iiS2_ff6ImVec2
libimhex.so:_ZN5ImGui6PushIDEPKc
libimhex.so:_ZN5ImGui6PushIDEPKcS1_
libimhex.so:_ZN5ImGui6PushIDEPKv
libimhex.so:_ZN5ImGui6PushIDEi
libimhex.so:_ZN5ImGui6RenderEv
libimhex.so:_ZN5ImGui6TextExEPKcS1_i
libimhex.so:_ZN5ImGui7ColumnsEiPKcb
libimhex.so:_ZN5ImGui7DragIntEPKcPifiiS1_i
libimhex.so:_ZN5ImGui7EndMenuEv
libimhex.so:_ZN5ImGui7GetFontEv
libimhex.so:_ZN5ImGui7GetTimeEv
libimhex.so:_ZN5ImGui7ItemAddERK6ImRectjPS1_
libimhex.so:_ZN5ImGui7ListBoxEPKcPiPFbPviPS1_ES3_ii
libimhex.so:_ZN5ImGui7ListBoxEPKcPiPKS1_ii
libimhex.so:_ZN5ImGui7LogTextEPKcz
libimhex.so:_ZN5ImGui7MemFreeEPv
libimhex.so:_ZN5ImGui7NewLineEv
libimhex.so:_ZN5ImGui7PopFontEv
libimhex.so:_ZN5ImGui7SpacingEv
libimhex.so:_ZN5ImGui7TreePopEv
libimhex.so:_ZN5ImGui8ButtonExEPKcRK6ImVec2i
libimhex.so:_ZN5ImGui8CheckboxEPKcPb
libimhex.so:_ZN5ImGui8DragInt2EPKcPifiiS1_i
libimhex.so:_ZN5ImGui8DragInt3EPKcPifiiS1_i
libimhex.so:_ZN5ImGui8DragInt4EPKcPifiiS1_i
libimhex.so:_ZN5ImGui8EndChildEv
libimhex.so:_ZN5ImGui8EndComboEv
libimhex.so:_ZN5ImGui8EndFrameEv
libimhex.so:_ZN5ImGui8EndGroupEv
libimhex.so:_ZN5ImGui8EndPopupEv
libimhex.so:_ZN5ImGui8EndTableEv
libimhex.so:_ZN5ImGui8GetStyleEv
libimhex.so:_ZN5ImGui8InputIntEPKcPiiii
libimhex.so:_ZN5ImGui8ItemSizeERK6ImRectf
libimhex.so:_ZN5ImGui8ItemSizeERK6ImVec2f
libimhex.so:_ZN5ImGui8LogBeginE12ImGuiLogTypei
libimhex.so:_ZN5ImGui8LogToTTYEi
libimhex.so:_ZN5ImGui8MemAllocEm
libimhex.so:_ZN5ImGui8MenuItemEPKcS1_Pbb
libimhex.so:_ZN5ImGui8MenuItemEPKcS1_bb
libimhex.so:_ZN5ImGui8NewFrameEv
libimhex.so:_ZN5ImGui8PushFontEP6ImFont
libimhex.so:_ZN5ImGui8SameLineEff
libimhex.so:_ZN5ImGui8SetNavIDEjij
libimhex.so:_ZN5ImGui8ShutdownEP12ImGuiContext
libimhex.so:_ZN5ImGui8TreeNodeEPKc
libimhex.so:_ZN5ImGui8TreeNodeEPKcS1_z
libimhex.so:_ZN5ImGui8TreeNodeEPKvPKcz
libimhex.so:_ZN5ImGui8TreePushEPKc
libimhex.so:_ZN5ImGui8TreePushEPKv
libimhex.so:_ZN5ImGui8UnindentEf
libimhex.so:_ZN5ImGui9BeginMenuEPKcb
libimhex.so:_ZN5ImGui9DockSpaceEjRK6ImVec2iPK16ImGuiWindowClass
libimhex.so:_ZN5ImGui9DragFloatEPKcPffffS1_i
libimhex.so:_ZN5ImGui9EndTabBarEv
libimhex.so:_ZN5ImGui9InputInt2EPKcPii
libimhex.so:_ZN5ImGui9InputInt3EPKcPii
libimhex.so:_ZN5ImGui9InputInt4EPKcPii
libimhex.so:_ZN5ImGui9InputTextEPKcPcmiPFiP26ImGuiInputTextCallbackDataEPv
libimhex.so:_ZN5ImGui9IsKeyDownEi
libimhex.so:_ZN5ImGui9LabelTextEPKcS1_z
libimhex.so:_ZN5ImGui9LogFinishEv
libimhex.so:_ZN5ImGui9LogToFileEiPKc
libimhex.so:_ZN5ImGui9OpenPopupEPKci
libimhex.so:_ZN5ImGui9PlotLinesEPKcPFfPviES2_iiS1_ff6ImVec2
libimhex.so:_ZN5ImGui9PlotLinesEPKcPKfiiS1_ff6ImVec2i
libimhex.so:_ZN5ImGui9ScrollbarE9ImGuiAxis
libimhex.so:_ZN5ImGui9SeparatorEv
libimhex.so:_ZN5ImGui9SliderIntEPKcPiiiS1_i
libimhex.so:_ZN5ImGui9TabItemExEP11ImGuiTabBarPKcPbiP11ImGuiWindow
libimhex.so:_ZN5ImGui9TreeNodeVEPKcS1_P13__va_list_tag
libimhex.so:_ZN5ImGui9TreeNodeVEPKvPKcP13__va_list_tag
libimhex.so:_ZN6ImFont12AddRemapCharEttb
libimhex.so:_ZN6ImFont15ClearOutputDataEv
libimhex.so:_ZN6ImFont15SetFallbackCharEt
libimhex.so:_ZN6ImFont15SetGlyphVisibleEtb
libimhex.so:_ZN6ImFont16BuildLookupTableEv
libimhex.so:_ZN6ImFont18IsGlyphRangeUnusedEjj
libimhex.so:_ZN6ImFont8AddGlyphEPK12ImFontConfigtfffffffff
libimhex.so:_ZN6ImFont9GrowIndexEi
libimhex.so:_ZN6ImFontC1Ev
libimhex.so:_ZN6ImFontC2Ev
libimhex.so:_ZN6ImFontD1Ev
libimhex.so:_ZN6ImFontD2Ev
libimhex.so:_ZN7ImGuiIO17AddInputCharacterEj
libimhex.so:_ZN7ImGuiIO20ClearInputCharactersEv
libimhex.so:_ZN7ImGuiIO22AddInputCharacterUTF16Et
libimhex.so:_ZN7ImGuiIO22AddInputCharactersUTF8EPKc
libimhex.so:_ZN7ImGuiIOC1Ev
libimhex.so:_ZN7ImGuiIOC2Ev
libimhex.so:_ZN9__gnu_cxx15__concat_size_tEPcmm
libimhex.so:_ZN9__gnu_cxx15__snprintf_liteEPcmPKcP13__va_list_tag
libimhex.so:_ZN9__gnu_cxx20recursive_init_errorC1Ev
libimhex.so:_ZN9__gnu_cxx20recursive_init_errorC2Ev
libimhex.so:_ZN9__gnu_cxx20recursive_init_errorD0Ev
libimhex.so:_ZN9__gnu_cxx20recursive_init_errorD1Ev
libimhex.so:_ZN9__gnu_cxx20recursive_init_errorD2Ev
libimhex.so:_ZN9__gnu_cxx26__throw_insufficient_spaceEPKcS1_
libimhex.so:_ZN9__gnu_cxx27__verbose_terminate_handlerEv
libimhex.so:_ZN9__gnu_cxx9__freeresEv
libimhex.so:_ZNK10ImDrawList11CloneOutputEv
libimhex.so:_ZNK10__cxxabiv117__class_type_info10__do_catchEPKSt9type_infoPPvj
libimhex.so:_ZNK10__cxxabiv117__class_type_info11__do_upcastEPKS0_PKvRNS0_15__upcast_resultE
libimhex.so:_ZNK10__cxxabiv117__class_type_info11__do_upcastEPKS0_PPv
libimhex.so:_ZNK10__cxxabiv117__class_type_info12__do_dyncastElNS0_10__sub_kindEPKS0_PKvS3_S5_RNS0_16__dyncast_resultE
libimhex.so:_ZNK10__cxxabiv117__class_type_info20__do_find_public_srcElPKvPKS0_S2_
libimhex.so:_ZNK10__cxxabiv120__si_class_type_info11__do_upcastEPKNS_17__class_type_infoEPKvRNS1_15__upcast_resultE
libimhex.so:_ZNK10__cxxabiv120__si_class_type_info12__do_dyncastElNS_17__class_type_info10__sub_kindEPKS1_PKvS4_S6_RNS1_16__dyncast_resultE
libimhex.so:_ZNK10__cxxabiv120__si_class_type_info20__do_find_public_srcElPKvPKNS_17__class_type_infoES2_
libimhex.so:_ZNK10__cxxabiv121__vmi_class_type_info11__do_upcastEPKNS_17__class_type_infoEPKvRNS1_15__upcast_resultE
libimhex.so:_ZNK10__cxxabiv121__vmi_class_type_info12__do_dyncastElNS_17__class_type_info10__sub_kindEPKS1_PKvS4_S6_RNS1_16__dyncast_resultE
libimhex.so:_ZNK10__cxxabiv121__vmi_class_type_info20__do_find_public_srcElPKvPKNS_17__class_type_infoES2_
libimhex.so:_ZNK11ImFontAtlas16CalcCustomRectUVEPK21ImFontAtlasCustomRectP6ImVec2S4_
libimhex.so:_ZNK12ImGuiStorage10GetVoidPtrEj
libimhex.so:_ZNK12ImGuiStorage6GetIntEji
libimhex.so:_ZNK12ImGuiStorage7GetBoolEjb
libimhex.so:_ZNK12ImGuiStorage8GetFloatEjf
libimhex.so:_ZNK15ImGuiTextFilter10PassFilterEPKcS1_
libimhex.so:_ZNK15ImGuiTextFilter14ImGuiTextRange5splitEcP8ImVectorIS0_E
libimhex.so:_ZNK16ImGuiMenuColumns14CalcExtraSpaceEf
libimhex.so:_ZNK3hex18LanguageDefinition10getEntriesB5cxx11Ev
libimhex.so:_ZNK3hex3prv8Provider14getCurrentPageEv
libimhex.so:_ZNK3hex4View18getUnlocalizedNameEv
libimhex.so:_ZNK3hex9LangEntry3getEv
libimhex.so:_ZNK3hex9LangEntrycvNSt7__cxx1112basic_stringIcSt11char_traitsIcESaIcEEEEv
libimhex.so:_ZNK3hex9LangEntrycvPKcEv
libimhex.so:_ZNK3hex9LangEntrycvSt17basic_string_viewIcSt11char_traitsIcEEEv
libimhex.so:_ZNK6ImFont10RenderCharEP10ImDrawListf6ImVec2jt
libimhex.so:_ZNK6ImFont10RenderTextEP10ImDrawListf6ImVec2jRK6ImVec4PKcS7_fb
libimhex.so:_ZNK6ImFont13CalcTextSizeAEfffPKcS1_PS1_
libimhex.so:_ZNK6ImFont19FindGlyphNoFallbackEt
libimhex.so:_ZNK6ImFont21CalcWordWrapPositionAEfPKcS1_f
libimhex.so:_ZNK6ImFont9FindGlyphEt
libimhex.so:_ZNKSt10bad_typeid4whatEv
libimhex.so:_ZNKSt10error_code23default_error_conditionEv
libimhex.so:_ZNKSt10filesystem7__cxx1116filesystem_error4whatEv
libimhex.so:_ZNKSt10filesystem7__cxx1116filesystem_error5path1Ev
libimhex.so:_ZNKSt10filesystem7__cxx1116filesystem_error5path2Ev
libimhex.so:_ZNKSt10filesystem7__cxx1118directory_iteratordeEv
libimhex.so:_ZNKSt10filesystem7__cxx1128recursive_directory_iterator17recursion_pendingEv
libimhex.so:_ZNKSt10filesystem7__cxx1128recursive_directory_iterator5depthEv
libimhex.so:_ZNKSt10filesystem7__cxx1128recursive_directory_iterator7optionsEv
libimhex.so:_ZNKSt10filesystem7__cxx1128recursive_directory_iteratordeEv
libimhex.so:_ZNKSt10filesystem7__cxx114path11parent_pathEv
libimhex.so:_ZNKSt10filesystem7__cxx114path12has_filenameEv
libimhex.so:_ZNKSt10filesystem7__cxx114path13has_root_nameEv
libimhex.so:_ZNKSt10filesystem7__cxx114path13has_root_pathEv
libimhex.so:_ZNKSt10filesystem7__cxx114path13relative_pathEv
libimhex.so:_ZNKSt10filesystem7__cxx114path14root_directoryEv
libimhex.so:_ZNKSt10filesystem7__cxx114path15has_parent_pathEv
libimhex.so:_ZNKSt10filesystem7__cxx114path16lexically_normalEv
libimhex.so:_ZNKSt10filesystem7__cxx114path17_M_find_extensionEv
libimhex.so:_ZNKSt10filesystem7__cxx114path17has_relative_pathEv
libimhex.so:_ZNKSt10filesystem7__cxx114path18has_root_directoryEv
libimhex.so:_ZNKSt10filesystem7__cxx114path18lexically_relativeERKS1_
libimhex.so:_ZNKSt10filesystem7__cxx114path19lexically_proximateERKS1_
libimhex.so:_ZNKSt10filesystem7__cxx114path5_List13_Impl_deleterclEPNS2_5_ImplE
libimhex.so:_ZNKSt10filesystem7__cxx114path5_List3endEv
libimhex.so:_ZNKSt10filesystem7__cxx114path5_List5beginEv
libimhex.so:_ZNKSt10filesystem7__cxx114path7compareERKS1_
libimhex.so:_ZNKSt10filesystem7__cxx114path7compareESt17basic_string_viewIcSt11char_traitsIcEE
libimhex.so:_ZNKSt10filesystem7__cxx114path9root_nameEv
libimhex.so:_ZNKSt10filesystem7__cxx114path9root_pathEv
libimhex.so:_ZNKSt11__timepunctIcE6_M_putEPcmPKcPK2tm
libimhex.so:_ZNKSt11__timepunctIwE6_M_putEPwmPKwPK2tm
libimhex.so:_ZNKSt11logic_error4whatEv
libimhex.so:_ZNKSt12__basic_fileIcE7is_openEv
libimhex.so:_ZNKSt13bad_exception4whatEv
libimhex.so:_ZNKSt13random_device13_M_getentropyEv
libimhex.so:_ZNKSt13runtime_error4whatEv
libimhex.so:_ZNKSt17bad_function_call4whatEv
libimhex.so:_ZNKSt19__codecvt_utf8_baseIDiE10do_unshiftER11__mbstate_tPcS3_RS3_
libimhex.so:_ZNKSt19__codecvt_utf8_baseIDiE11do_encodingEv
libimhex.so:_ZNKSt19__codecvt_utf8_baseIDiE13do_max_lengthEv
libimhex.so:_ZNKSt19__codecvt_utf8_baseIDiE16do_always_noconvEv
libimhex.so:_ZNKSt19__codecvt_utf8_baseIDiE5do_inER11__mbstate_tPKcS4_RS4_PDiS6_RS6_
libimhex.so:_ZNKSt19__codecvt_utf8_baseIDiE6do_outER11__mbstate_tPKDiS4_RS4_PcS6_RS6_
libimhex.so:_ZNKSt19__codecvt_utf8_baseIDiE9do_lengthER11__mbstate_tPKcS4_m
libimhex.so:_ZNKSt19__codecvt_utf8_baseIDsE10do_unshiftER11__mbstate_tPcS3_RS3_
libimhex.so:_ZNKSt19__codecvt_utf8_baseIDsE11do_encodingEv
libimhex.so:_ZNKSt19__codecvt_utf8_baseIDsE13do_max_lengthEv
libimhex.so:_ZNKSt19__codecvt_utf8_baseIDsE16do_always_noconvEv
libimhex.so:_ZNKSt19__codecvt_utf8_baseIDsE5do_inER11__mbstate_tPKcS4_RS4_PDsS6_RS6_
libimhex.so:_ZNKSt19__codecvt_utf8_baseIDsE6do_outER11__mbstate_tPKDsS4_RS4_PcS6_RS6_
libimhex.so:_ZNKSt19__codecvt_utf8_baseIDsE9do_lengthER11__mbstate_tPKcS4_m
libimhex.so:_ZNKSt19__codecvt_utf8_baseIwE10do_unshiftER11__mbstate_tPcS3_RS3_
libimhex.so:_ZNKSt19__codecvt_utf8_baseIwE11do_encodingEv
libimhex.so:_ZNKSt19__codecvt_utf8_baseIwE13do_max_lengthEv
libimhex.so:_ZNKSt19__codecvt_utf8_baseIwE16do_always_noconvEv
libimhex.so:_ZNKSt19__codecvt_utf8_baseIwE5do_inER11__mbstate_tPKcS4_RS4_PwS6_RS6_
libimhex.so:_ZNKSt19__codecvt_utf8_baseIwE6do_outER11__mbstate_tPKwS4_RS4_PcS6_RS6_
libimhex.so:_ZNKSt19__codecvt_utf8_baseIwE9do_lengthER11__mbstate_tPKcS4_m
libimhex.so:_ZNKSt19__iosfail_type_info11__do_upcastEPKN10__cxxabiv117__class_type_infoEPPv
libimhex.so:_ZNKSt20__codecvt_utf16_baseIDiE10do_unshiftER11__mbstate_tPcS3_RS3_
libimhex.so:_ZNKSt20__codecvt_utf16_baseIDiE11do_encodingEv
libimhex.so:_ZNKSt20__codecvt_utf16_baseIDiE13do_max_lengthEv
libimhex.so:_ZNKSt20__codecvt_utf16_baseIDiE16do_always_noconvEv
libimhex.so:_ZNKSt20__codecvt_utf16_baseIDiE5do_inER11__mbstate_tPKcS4_RS4_PDiS6_RS6_
libimhex.so:_ZNKSt20__codecvt_utf16_baseIDiE6do_outER11__mbstate_tPKDiS4_RS4_PcS6_RS6_
libimhex.so:_ZNKSt20__codecvt_utf16_baseIDiE9do_lengthER11__mbstate_tPKcS4_m
libimhex.so:_ZNKSt20__codecvt_utf16_baseIDsE10do_unshiftER11__mbstate_tPcS3_RS3_
libimhex.so:_ZNKSt20__codecvt_utf16_baseIDsE11do_encodingEv
libimhex.so:_ZNKSt20__codecvt_utf16_baseIDsE13do_max_lengthEv
libimhex.so:_ZNKSt20__codecvt_utf16_baseIDsE16do_always_noconvEv
libimhex.so:_ZNKSt20__codecvt_utf16_baseIDsE5do_inER11__mbstate_tPKcS4_RS4_PDsS6_RS6_
libimhex.so:_ZNKSt20__codecvt_utf16_baseIDsE6do_outER11__mbstate_tPKDsS4_RS4_PcS6_RS6_
libimhex.so:_ZNKSt20__codecvt_utf16_baseIDsE9do_lengthER11__mbstate_tPKcS4_m
libimhex.so:_ZNKSt20__codecvt_utf16_baseIwE10do_unshiftER11__mbstate_tPcS3_RS3_
libimhex.so:_ZNKSt20__codecvt_utf16_baseIwE11do_encodingEv
libimhex.so:_ZNKSt20__codecvt_utf16_baseIwE13do_max_lengthEv
libimhex.so:_ZNKSt20__codecvt_utf16_baseIwE16do_always_noconvEv
libimhex.so:_ZNKSt20__codecvt_utf16_baseIwE5do_inER11__mbstate_tPKcS4_RS4_PwS6_RS6_
libimhex.so:_ZNKSt20__codecvt_utf16_baseIwE6do_outER11__mbstate_tPKwS4_RS4_PcS6_RS6_
libimhex.so:_ZNKSt20__codecvt_utf16_baseIwE9do_lengthER11__mbstate_tPKcS4_m
libimhex.so:_ZNKSt20bad_array_new_length4whatEv
libimhex.so:_ZNKSt25__codecvt_utf8_utf16_baseIDiE10do_unshiftER11__mbstate_tPcS3_RS3_
libimhex.so:_ZNKSt25__codecvt_utf8_utf16_baseIDiE11do_encodingEv
libimhex.so:_ZNKSt25__codecvt_utf8_utf16_baseIDiE13do_max_lengthEv
libimhex.so:_ZNKSt25__codecvt_utf8_utf16_baseIDiE16do_always_noconvEv
libimhex.so:_ZNKSt25__codecvt_utf8_utf16_baseIDiE5do_inER11__mbstate_tPKcS4_RS4_PDiS6_RS6_
libimhex.so:_ZNKSt25__codecvt_utf8_utf16_baseIDiE6do_outER11__mbstate_tPKDiS4_RS4_PcS6_RS6_
libimhex.so:_ZNKSt25__codecvt_utf8_utf16_baseIDiE9do_lengthER11__mbstate_tPKcS4_m
libimhex.so:_ZNKSt25__codecvt_utf8_utf16_baseIDsE10do_unshiftER11__mbstate_tPcS3_RS3_
libimhex.so:_ZNKSt25__codecvt_utf8_utf16_baseIDsE11do_encodingEv
libimhex.so:_ZNKSt25__codecvt_utf8_utf16_baseIDsE13do_max_lengthEv
libimhex.so:_ZNKSt25__codecvt_utf8_utf16_baseIDsE16do_always_noconvEv
libimhex.so:_ZNKSt25__codecvt_utf8_utf16_baseIDsE5do_inER11__mbstate_tPKcS4_RS4_PDsS6_RS6_
libimhex.so:_ZNKSt25__codecvt_utf8_utf16_baseIDsE6do_outER11__mbstate_tPKDsS4_RS4_PcS6_RS6_
libimhex.so:_ZNKSt25__codecvt_utf8_utf16_baseIDsE9do_lengthER11__mbstate_tPKcS4_m
libimhex.so:_ZNKSt25__codecvt_utf8_utf16_baseIwE10do_unshiftER11__mbstate_tPcS3_RS3_
libimhex.so:_ZNKSt25__codecvt_utf8_utf16_baseIwE11do_encodingEv
libimhex.so:_ZNKSt25__codecvt_utf8_utf16_baseIwE13do_max_lengthEv
libimhex.so:_ZNKSt25__codecvt_utf8_utf16_baseIwE16do_always_noconvEv
libimhex.so:_ZNKSt25__codecvt_utf8_utf16_baseIwE5do_inER11__mbstate_tPKcS4_RS4_PwS6_RS6_
libimhex.so:_ZNKSt25__codecvt_utf8_utf16_baseIwE6do_outER11__mbstate_tPKwS4_RS4_PcS6_RS6_
libimhex.so:_ZNKSt25__codecvt_utf8_utf16_baseIwE9do_lengthER11__mbstate_tPKcS4_m
libimhex.so:_ZNKSt3_V214error_category10_M_messageB5cxx11Ei
libimhex.so:_ZNKSt3_V214error_category10_M_messageEi
libimhex.so:_ZNKSt3_V214error_category10equivalentERKSt10error_codei
libimhex.so:_ZNKSt3_V214error_category10equivalentEiRKSt15error_condition
libimhex.so:_ZNKSt3_V214error_category23default_error_conditionEi
libimhex.so:_ZNKSt5ctypeIcE10do_tolowerEPcPKc
libimhex.so:_ZNKSt5ctypeIcE10do_tolowerEc
libimhex.so:_ZNKSt5ctypeIcE10do_toupperEPcPKc
libimhex.so:_ZNKSt5ctypeIcE10do_toupperEc
libimhex.so:_ZNKSt5ctypeIcE13_M_widen_initEv
libimhex.so:_ZNKSt5ctypeIcE14_M_narrow_initEv
libimhex.so:_ZNKSt5ctypeIwE10do_scan_isEtPKwS2_
libimhex.so:_ZNKSt5ctypeIwE10do_tolowerEPwPKw
libimhex.so:_ZNKSt5ctypeIwE10do_tolowerEw
libimhex.so:_ZNKSt5ctypeIwE10do_toupperEPwPKw
libimhex.so:_ZNKSt5ctypeIwE10do_toupperEw
libimhex.so:_ZNKSt5ctypeIwE11do_scan_notEtPKwS2_
libimhex.so:_ZNKSt5ctypeIwE19_M_convert_to_wmaskEt
libimhex.so:_ZNKSt5ctypeIwE5do_isEPKwS2_Pt
libimhex.so:_ZNKSt5ctypeIwE5do_isEtw
libimhex.so:_ZNKSt5ctypeIwE8do_widenEPKcS2_Pw
libimhex.so:_ZNKSt5ctypeIwE8do_widenEc
libimhex.so:_ZNKSt5ctypeIwE9do_narrowEPKwS2_cPc
libimhex.so:_ZNKSt5ctypeIwE9do_narrowEwc
libimhex.so:_ZNKSt6locale2id5_M_idEv
libimhex.so:_ZNKSt6locale4nameB5cxx11Ev
libimhex.so:_ZNKSt6locale4nameEv
libimhex.so:_ZNKSt6locale5facet11_M_cow_shimEPKNS_2idE
libimhex.so:_ZNKSt6locale5facet11_M_sso_shimEPKNS_2idE
libimhex.so:_ZNKSt6localeeqERKS_
libimhex.so:_ZNKSt7__cxx1112basic_stringIcSt11char_traitsIcESaIcEE4findEPKcmm
libimhex.so:_ZNKSt7__cxx1112basic_stringIcSt11char_traitsIcESaIcEE4findEcm
libimhex.so:_ZNKSt7__cxx1112basic_stringIcSt11char_traitsIcESaIcEE7compareEPKc
libimhex.so:_ZNKSt7__cxx117collateIcE10_M_compareEPKcS3_
libimhex.so:_ZNKSt7__cxx117collateIcE12_M_transformEPcPKcm
libimhex.so:_ZNKSt7__cxx117collateIwE10_M_compareEPKwS3_
libimhex.so:_ZNKSt7__cxx117collateIwE12_M_transformEPwPKwm
libimhex.so:_ZNKSt7__cxx118messagesIcE6do_getEiiiRKNS_12basic_stringIcSt11char_traitsIcESaIcEEE
libimhex.so:_ZNKSt7__cxx118messagesIcE7do_openERKNS_12basic_stringIcSt11char_traitsIcESaIcEEERKSt6locale
libimhex.so:_ZNKSt7__cxx118messagesIcE8do_closeEi
libimhex.so:_ZNKSt7__cxx118messagesIwE6do_getEiiiRKNS_12basic_stringIwSt11char_traitsIwESaIwEEE
libimhex.so:_ZNKSt7__cxx118messagesIwE7do_openERKNS_12basic_stringIcSt11char_traitsIcESaIcEEERKSt6locale
libimhex.so:_ZNKSt7__cxx118messagesIwE8do_closeEi
libimhex.so:_ZNKSt7codecvtIDiDu11__mbstate_tE10do_unshiftERS0_PDuS3_RS3_
libimhex.so:_ZNKSt7codecvtIDiDu11__mbstate_tE11do_encodingEv
libimhex.so:_ZNKSt7codecvtIDiDu11__mbstate_tE13do_max_lengthEv
libimhex.so:_ZNKSt7codecvtIDiDu11__mbstate_tE16do_always_noconvEv
libimhex.so:_ZNKSt7codecvtIDiDu11__mbstate_tE5do_inERS0_PKDuS4_RS4_PDiS6_RS6_
libimhex.so:_ZNKSt7codecvtIDiDu11__mbstate_tE6do_outERS0_PKDiS4_RS4_PDuS6_RS6_
libimhex.so:_ZNKSt7codecvtIDiDu11__mbstate_tE9do_lengthERS0_PKDuS4_m
libimhex.so:_ZNKSt7codecvtIDic11__mbstate_tE10do_unshiftERS0_PcS3_RS3_
libimhex.so:_ZNKSt7codecvtIDic11__mbstate_tE11do_encodingEv
libimhex.so:_ZNKSt7codecvtIDic11__mbstate_tE13do_max_lengthEv
libimhex.so:_ZNKSt7codecvtIDic11__mbstate_tE16do_always_noconvEv
libimhex.so:_ZNKSt7codecvtIDic11__mbstate_tE5do_inERS0_PKcS4_RS4_PDiS6_RS6_
libimhex.so:_ZNKSt7codecvtIDic11__mbstate_tE6do_outERS0_PKDiS4_RS4_PcS6_RS6_
libimhex.so:_ZNKSt7codecvtIDic11__mbstate_tE9do_lengthERS0_PKcS4_m
libimhex.so:_ZNKSt7codecvtIDsDu11__mbstate_tE10do_unshiftERS0_PDuS3_RS3_
libimhex.so:_ZNKSt7codecvtIDsDu11__mbstate_tE11do_encodingEv
libimhex.so:_ZNKSt7codecvtIDsDu11__mbstate_tE13do_max_lengthEv
libimhex.so:_ZNKSt7codecvtIDsDu11__mbstate_tE16do_always_noconvEv
libimhex.so:_ZNKSt7codecvtIDsDu11__mbstate_tE5do_inERS0_PKDuS4_RS4_PDsS6_RS6_
libimhex.so:_ZNKSt7codecvtIDsDu11__mbstate_tE6do_outERS0_PKDsS4_RS4_PDuS6_RS6_
libimhex.so:_ZNKSt7codecvtIDsDu11__mbstate_tE9do_lengthERS0_PKDuS4_m
libimhex.so:_ZNKSt7codecvtIDsc11__mbstate_tE10do_unshiftERS0_PcS3_RS3_
libimhex.so:_ZNKSt7codecvtIDsc11__mbstate_tE11do_encodingEv
libimhex.so:_ZNKSt7codecvtIDsc11__mbstate_tE13do_max_lengthEv
libimhex.so:_ZNKSt7codecvtIDsc11__mbstate_tE16do_always_noconvEv
libimhex.so:_ZNKSt7codecvtIDsc11__mbstate_tE5do_inERS0_PKcS4_RS4_PDsS6_RS6_
libimhex.so:_ZNKSt7codecvtIDsc11__mbstate_tE6do_outERS0_PKDsS4_RS4_PcS6_RS6_
libimhex.so:_ZNKSt7codecvtIDsc11__mbstate_tE9do_lengthERS0_PKcS4_m
libimhex.so:_ZNKSt7codecvtIcc11__mbstate_tE10do_unshiftERS0_PcS3_RS3_
libimhex.so:_ZNKSt7codecvtIcc11__mbstate_tE11do_encodingEv
libimhex.so:_ZNKSt7codecvtIcc11__mbstate_tE13do_max_lengthEv
libimhex.so:_ZNKSt7codecvtIcc11__mbstate_tE16do_always_noconvEv
libimhex.so:_ZNKSt7codecvtIcc11__mbstate_tE5do_inERS0_PKcS4_RS4_PcS6_RS6_
libimhex.so:_ZNKSt7codecvtIcc11__mbstate_tE6do_outERS0_PKcS4_RS4_PcS6_RS6_
libimhex.so:_ZNKSt7codecvtIcc11__mbstate_tE9do_lengthERS0_PKcS4_m
libimhex.so:_ZNKSt7codecvtIwc11__mbstate_tE10do_unshiftERS0_PcS3_RS3_
libimhex.so:_ZNKSt7codecvtIwc11__mbstate_tE11do_encodingEv
libimhex.so:_ZNKSt7codecvtIwc11__mbstate_tE13do_max_lengthEv
libimhex.so:_ZNKSt7codecvtIwc11__mbstate_tE16do_always_noconvEv
libimhex.so:_ZNKSt7codecvtIwc11__mbstate_tE5do_inERS0_PKcS4_RS4_PwS6_RS6_
libimhex.so:_ZNKSt7codecvtIwc11__mbstate_tE6do_outERS0_PKwS4_RS4_PcS6_RS6_
libimhex.so:_ZNKSt7codecvtIwc11__mbstate_tE9do_lengthERS0_PKcS4_m
libimhex.so:_ZNKSt7collateIcE10_M_compareEPKcS2_
libimhex.so:_ZNKSt7collateIcE12_M_transformEPcPKcm
libimhex.so:_ZNKSt7collateIwE10_M_compareEPKwS2_
libimhex.so:_ZNKSt7collateIwE12_M_transformEPwPKwm
libimhex.so:_ZNKSt8Catalogs6_M_getEi
libimhex.so:_ZNKSt8__detail20_Prime_rehash_policy11_M_next_bktEm
libimhex.so:_ZNKSt8__detail20_Prime_rehash_policy14_M_need_rehashEmmm
libimhex.so:_ZNKSt8bad_cast4whatEv
libimhex.so:_ZNKSt8ios_base7failure4whatEv
libimhex.so:_ZNKSt8ios_base7failureB5cxx114whatEv
libimhex.so:_ZNKSt8messagesIcE6do_getEiiiRKSs
libimhex.so:_ZNKSt8messagesIcE7do_openERKSsRKSt6locale
libimhex.so:_ZNKSt8messagesIcE8do_closeEi
libimhex.so:_ZNKSt8messagesIwE6do_getEiiiRKSbIwSt11char_traitsIwESaIwEE
libimhex.so:_ZNKSt8messagesIwE7do_openERKSsRKSt6locale
libimhex.so:_ZNKSt8messagesIwE8do_closeEi
libimhex.so:_ZNKSt9bad_alloc4whatEv
libimhex.so:_ZNKSt9exception4whatEv
libimhex.so:_ZNKSt9type_info10__do_catchEPKS_PPvj
libimhex.so:_ZNKSt9type_info11__do_upcastEPKN10__cxxabiv117__class_type_infoEPPv
libimhex.so:_ZNKSt9type_info14__is_pointer_pEv
libimhex.so:_ZNKSt9type_info15__is_function_pEv
libimhex.so:_ZNSi6ignoreEl
libimhex.so:_ZNSi6ignoreEli
libimhex.so:_ZNSi7getlineEPclc
libimhex.so:_ZNSt10__num_base15_S_format_floatERKSt8ios_basePcc
libimhex.so:_ZNSt10bad_typeidD0Ev
libimhex.so:_ZNSt10bad_typeidD1Ev
libimhex.so:_ZNSt10bad_typeidD2Ev
libimhex.so:_ZNSt10filesystem10equivalentERKNS_7__cxx114pathES3_
libimhex.so:_ZNSt10filesystem10equivalentERKNS_7__cxx114pathES3_RSt10error_code
libimhex.so:_ZNSt10filesystem10remove_allERKNS_7__cxx114pathE
libimhex.so:_ZNSt10filesystem10remove_allERKNS_7__cxx114pathERSt10error_code
libimhex.so:_ZNSt10filesystem11permissionsERKNS_7__cxx114pathENS_5permsENS_12perm_optionsE
libimhex.so:_ZNSt10filesystem11permissionsERKNS_7__cxx114pathENS_5permsENS_12perm_optionsERSt10error_code
libimhex.so:_ZNSt10filesystem11resize_fileERKNS_7__cxx114pathEm
libimhex.so:_ZNSt10filesystem11resize_fileERKNS_7__cxx114pathEmRSt10error_code
libimhex.so:_ZNSt10filesystem12copy_symlinkERKNS_7__cxx114pathES3_
libimhex.so:_ZNSt10filesystem12copy_symlinkERKNS_7__cxx114pathES3_RSt10error_code
libimhex.so:_ZNSt10filesystem12current_pathB5cxx11ERSt10error_code
libimhex.so:_ZNSt10filesystem12current_pathB5cxx11Ev
libimhex.so:_ZNSt10filesystem12current_pathERKNS_7__cxx114pathE
libimhex.so:_ZNSt10filesystem12current_pathERKNS_7__cxx114pathERSt10error_code
libimhex.so:_ZNSt10filesystem12do_copy_fileEPKcS1_NS_26copy_options_existing_fileEP4statS4_RSt10error_code
libimhex.so:_ZNSt10filesystem12read_symlinkERKNS_7__cxx114pathE
libimhex.so:_ZNSt10filesystem12read_symlinkERKNS_7__cxx114pathERSt10error_code
libimhex.so:_ZNSt10filesystem14create_symlinkERKNS_7__cxx114pathES3_
libimhex.so:_ZNSt10filesystem14create_symlinkERKNS_7__cxx114pathES3_RSt10error_code
libimhex.so:_ZNSt10filesystem14symlink_statusERKNS_7__cxx114pathE
libimhex.so:_ZNSt10filesystem14symlink_statusERKNS_7__cxx114pathERSt10error_code
libimhex.so:_ZNSt10filesystem15hard_link_countERKNS_7__cxx114pathE
libimhex.so:_ZNSt10filesystem15hard_link_countERKNS_7__cxx114pathERSt10error_code
libimhex.so:_ZNSt10filesystem15last_write_timeERKNS_7__cxx114pathE
libimhex.so:_ZNSt10filesystem15last_write_timeERKNS_7__cxx114pathENSt6chrono10time_pointINS_12__file_clockENS4_8durationIlSt5ratioILl1ELl1000000000EEEEEE
libimhex.so:_ZNSt10filesystem15last_write_timeERKNS_7__cxx114pathENSt6chrono10time_pointINS_12__file_clockENS4_8durationIlSt5ratioILl1ELl1000000000EEEEEERSt10error_code
libimhex.so:_ZNSt10filesystem15last_write_timeERKNS_7__cxx114pathERSt10error_code
libimhex.so:_ZNSt10filesystem16create_directoryERKNS_7__cxx114pathE
libimhex.so:_ZNSt10filesystem16create_directoryERKNS_7__cxx114pathERSt10error_code
libimhex.so:_ZNSt10filesystem16create_directoryERKNS_7__cxx114pathES3_
libimhex.so:_ZNSt10filesystem16create_directoryERKNS_7__cxx114pathES3_RSt10error_code
libimhex.so:_ZNSt10filesystem16create_hard_linkERKNS_7__cxx114pathES3_
libimhex.so:_ZNSt10filesystem16create_hard_linkERKNS_7__cxx114pathES3_RSt10error_code
libimhex.so:_ZNSt10filesystem16weakly_canonicalERKNS_7__cxx114pathE
libimhex.so:_ZNSt10filesystem16weakly_canonicalERKNS_7__cxx114pathERSt10error_code
libimhex.so:_ZNSt10filesystem18create_directoriesERKNS_7__cxx114pathE
libimhex.so:_ZNSt10filesystem18create_directoriesERKNS_7__cxx114pathERSt10error_code
libimhex.so:_ZNSt10filesystem19temp_directory_pathB5cxx11ERSt10error_code
libimhex.so:_ZNSt10filesystem19temp_directory_pathB5cxx11Ev
libimhex.so:_ZNSt10filesystem24create_directory_symlinkERKNS_7__cxx114pathES3_
libimhex.so:_ZNSt10filesystem24create_directory_symlinkERKNS_7__cxx114pathES3_RSt10error_code
libimhex.so:_ZNSt10filesystem4copyERKNS_7__cxx114pathES3_NS_12copy_optionsE
libimhex.so:_ZNSt10filesystem4copyERKNS_7__cxx114pathES3_NS_12copy_optionsERSt10error_code
libimhex.so:_ZNSt10filesystem5spaceERKNS_7__cxx114pathE
libimhex.so:_ZNSt10filesystem5spaceERKNS_7__cxx114pathERSt10error_code
libimhex.so:_ZNSt10filesystem6removeERKNS_7__cxx114pathE
libimhex.so:_ZNSt10filesystem6removeERKNS_7__cxx114pathERSt10error_code
libimhex.so:_ZNSt10filesystem6renameERKNS_7__cxx114pathES3_
libimhex.so:_ZNSt10filesystem6renameERKNS_7__cxx114pathES3_RSt10error_code
libimhex.so:_ZNSt10filesystem6statusERKNS_7__cxx114pathE
libimhex.so:_ZNSt10filesystem6statusERKNS_7__cxx114pathERSt10error_code
libimhex.so:_ZNSt10filesystem7__cxx1110hash_valueERKNS0_4pathE
libimhex.so:_ZNSt10filesystem7__cxx1116filesystem_errorC1ERKNSt7__cxx1112basic_stringIcSt11char_traitsIcESaIcEEERKNS0_4pathESC_St10error_code
libimhex.so:_ZNSt10filesystem7__cxx1116filesystem_errorC1ERKNSt7__cxx1112basic_stringIcSt11char_traitsIcESaIcEEERKNS0_4pathESt10error_code
libimhex.so:_ZNSt10filesystem7__cxx1116filesystem_errorC1ERKNSt7__cxx1112basic_stringIcSt11char_traitsIcESaIcEEESt10error_code
libimhex.so:_ZNSt10filesystem7__cxx1116filesystem_errorC2ERKNSt7__cxx1112basic_stringIcSt11char_traitsIcESaIcEEERKNS0_4pathESC_St10error_code
libimhex.so:_ZNSt10filesystem7__cxx1116filesystem_errorC2ERKNSt7__cxx1112basic_stringIcSt11char_traitsIcESaIcEEERKNS0_4pathESt10error_code
libimhex.so:_ZNSt10filesystem7__cxx1116filesystem_errorC2ERKNSt7__cxx1112basic_stringIcSt11char_traitsIcESaIcEEESt10error_code
libimhex.so:_ZNSt10filesystem7__cxx1116filesystem_errorD0Ev
libimhex.so:_ZNSt10filesystem7__cxx1116filesystem_errorD1Ev
libimhex.so:_ZNSt10filesystem7__cxx1116filesystem_errorD2Ev
libimhex.so:_ZNSt10filesystem7__cxx1118directory_iterator9incrementERSt10error_code
libimhex.so:_ZNSt10filesystem7__cxx1118directory_iteratorC1ERKNS0_4pathENS_17directory_optionsEPSt10error_code
libimhex.so:_ZNSt10filesystem7__cxx1118directory_iteratorC2ERKNS0_4pathENS_17directory_optionsEPSt10error_code
libimhex.so:_ZNSt10filesystem7__cxx1118directory_iteratorppEv
libimhex.so:_ZNSt10filesystem7__cxx1128recursive_directory_iterator25disable_recursion_pendingEv
libimhex.so:_ZNSt10filesystem7__cxx1128recursive_directory_iterator3popERSt10error_code
libimhex.so:_ZNSt10filesystem7__cxx1128recursive_directory_iterator3popEv
libimhex.so:_ZNSt10filesystem7__cxx1128recursive_directory_iterator9incrementERSt10error_code
libimhex.so:_ZNSt10filesystem7__cxx1128recursive_directory_iteratorC1ERKNS0_4pathENS_17directory_optionsEPSt10error_code
libimhex.so:_ZNSt10filesystem7__cxx1128recursive_directory_iteratorC2ERKNS0_4pathENS_17directory_optionsEPSt10error_code
libimhex.so:_ZNSt10filesystem7__cxx1128recursive_directory_iteratorD1Ev
libimhex.so:_ZNSt10filesystem7__cxx1128recursive_directory_iteratorD2Ev
libimhex.so:_ZNSt10filesystem7__cxx1128recursive_directory_iteratoraSEOS1_
libimhex.so:_ZNSt10filesystem7__cxx1128recursive_directory_iteratoraSERKS1_
libimhex.so:_ZNSt10filesystem7__cxx1128recursive_directory_iteratorppEv
libimhex.so:_ZNSt10filesystem7__cxx114path14_M_split_cmptsEv
libimhex.so:_ZNSt10filesystem7__cxx114path14_S_convert_locEPKcS3_RKSt6locale
libimhex.so:_ZNSt10filesystem7__cxx114path15remove_filenameEv
libimhex.so:_ZNSt10filesystem7__cxx114path16replace_filenameERKS1_
libimhex.so:_ZNSt10filesystem7__cxx114path17replace_extensionERKS1_
libimhex.so:_ZNSt10filesystem7__cxx114path5_List7reserveEib
libimhex.so:_ZNSt10filesystem7__cxx114path5_ListC1ERKS2_
libimhex.so:_ZNSt10filesystem7__cxx114path5_ListC1Ev
libimhex.so:_ZNSt10filesystem7__cxx114path5_ListC2ERKS2_
libimhex.so:_ZNSt10filesystem7__cxx114path5_ListC2Ev
libimhex.so:_ZNSt10filesystem7__cxx114path5_ListaSERKS2_
libimhex.so:_ZNSt10filesystem7__cxx114path9_M_appendESt17basic_string_viewIcSt11char_traitsIcEE
libimhex.so:_ZNSt10filesystem7__cxx114path9_M_concatESt17basic_string_viewIcSt11char_traitsIcEE
libimhex.so:_ZNSt10filesystem7__cxx114pathaSERKS1_
libimhex.so:_ZNSt10filesystem7__cxx114pathdVERKS1_
libimhex.so:_ZNSt10filesystem7__cxx114pathpLERKS1_
libimhex.so:_ZNSt10filesystem8absoluteERKNS_7__cxx114pathE
libimhex.so:_ZNSt10filesystem8absoluteERKNS_7__cxx114pathERSt10error_code
libimhex.so:_ZNSt10filesystem8do_spaceEPKcRmS2_S2_RSt10error_code
libimhex.so:_ZNSt10filesystem8is_emptyERKNS_7__cxx114pathE
libimhex.so:_ZNSt10filesystem8is_emptyERKNS_7__cxx114pathERSt10error_code
libimhex.so:_ZNSt10filesystem8relativeERKNS_7__cxx114pathES3_
libimhex.so:_ZNSt10filesystem8relativeERKNS_7__cxx114pathES3_RSt10error_code
libimhex.so:_ZNSt10filesystem9canonicalERKNS_7__cxx114pathE
libimhex.so:_ZNSt10filesystem9canonicalERKNS_7__cxx114pathERSt10error_code
libimhex.so:_ZNSt10filesystem9copy_fileERKNS_7__cxx114pathES3_NS_12copy_optionsE
libimhex.so:_ZNSt10filesystem9copy_fileERKNS_7__cxx114pathES3_NS_12copy_optionsERSt10error_code
libimhex.so:_ZNSt10filesystem9file_sizeERKNS_7__cxx114pathE
libimhex.so:_ZNSt10filesystem9file_sizeERKNS_7__cxx114pathERSt10error_code
libimhex.so:_ZNSt10filesystem9proximateERKNS_7__cxx114pathES3_
libimhex.so:_ZNSt10filesystem9proximateERKNS_7__cxx114pathES3_RSt10error_code
libimhex.so:_ZNSt10money_base20_S_construct_patternEccc
libimhex.so:_ZNSt10moneypunctIcLb0EE24_M_initialize_moneypunctEP15__locale_structPKc
libimhex.so:_ZNSt10moneypunctIcLb0EED0Ev
libimhex.so:_ZNSt10moneypunctIcLb0EED1Ev
libimhex.so:_ZNSt10moneypunctIcLb0EED2Ev
libimhex.so:_ZNSt10moneypunctIcLb1EE24_M_initialize_moneypunctEP15__locale_structPKc
libimhex.so:_ZNSt10moneypunctIcLb1EED0Ev
libimhex.so:_ZNSt10moneypunctIcLb1EED1Ev
libimhex.so:_ZNSt10moneypunctIcLb1EED2Ev
libimhex.so:_ZNSt10moneypunctIwLb0EE24_M_initialize_moneypunctEP15__locale_structPKc
libimhex.so:_ZNSt10moneypunctIwLb0EED0Ev
libimhex.so:_ZNSt10moneypunctIwLb0EED1Ev
libimhex.so:_ZNSt10moneypunctIwLb0EED2Ev
libimhex.so:_ZNSt10moneypunctIwLb1EE24_M_initialize_moneypunctEP15__locale_structPKc
libimhex.so:_ZNSt10moneypunctIwLb1EED0Ev
libimhex.so:_ZNSt10moneypunctIwLb1EED1Ev
libimhex.so:_ZNSt10moneypunctIwLb1EED2Ev
libimhex.so:_ZNSt11__timepunctIcE23_M_initialize_timepunctEP15__locale_struct
libimhex.so:_ZNSt11__timepunctIwE23_M_initialize_timepunctEP15__locale_struct
libimhex.so:_ZNSt11logic_errorC1EOS_
libimhex.so:_ZNSt11logic_errorC1EPKc
libimhex.so:_ZNSt11logic_errorC1ERKNSt7__cxx1112basic_stringIcSt11char_traitsIcESaIcEEE
libimhex.so:_ZNSt11logic_errorC1ERKS_
libimhex.so:_ZNSt11logic_errorC1ERKSs
libimhex.so:_ZNSt11logic_errorC2EOS_
libimhex.so:_ZNSt11logic_errorC2EPKc
libimhex.so:_ZNSt11logic_errorC2ERKNSt7__cxx1112basic_stringIcSt11char_traitsIcESaIcEEE
libimhex.so:_ZNSt11logic_errorC2ERKS_
libimhex.so:_ZNSt11logic_errorC2ERKSs
libimhex.so:_ZNSt11logic_errorD0Ev
libimhex.so:_ZNSt11logic_errorD1Ev
libimhex.so:_ZNSt11logic_errorD2Ev
libimhex.so:_ZNSt11logic_erroraSEOS_
libimhex.so:_ZNSt11logic_erroraSERKS_
libimhex.so:_ZNSt11range_errorC1EPKc
libimhex.so:_ZNSt11range_errorC1ERKNSt7__cxx1112basic_stringIcSt11char_traitsIcESaIcEEE
libimhex.so:_ZNSt11range_errorC1ERKSs
libimhex.so:_ZNSt11range_errorC2EPKc
libimhex.so:_ZNSt11range_errorC2ERKNSt7__cxx1112basic_stringIcSt11char_traitsIcESaIcEEE
libimhex.so:_ZNSt11range_errorC2ERKSs
libimhex.so:_ZNSt11range_errorD0Ev
libimhex.so:_ZNSt11range_errorD1Ev
libimhex.so:_ZNSt11range_errorD2Ev
libimhex.so:_ZNSt12__basic_fileIcE2fdEv
libimhex.so:_ZNSt12__basic_fileIcE4fileEv
libimhex.so:_ZNSt12__basic_fileIcE4openEPKcSt13_Ios_Openmodei
libimhex.so:_ZNSt12__basic_fileIcE4syncEv
libimhex.so:_ZNSt12__basic_fileIcE5closeEv
libimhex.so:_ZNSt12__basic_fileIcE6xsgetnEPcl
libimhex.so:_ZNSt12__basic_fileIcE6xsputnEPKcl
libimhex.so:_ZNSt12__basic_fileIcE7seekoffElSt12_Ios_Seekdir
libimhex.so:_ZNSt12__basic_fileIcE8sys_openEP8_IO_FILESt13_Ios_Openmode
libimhex.so:_ZNSt12__basic_fileIcE8sys_openEiSt13_Ios_Openmode
libimhex.so:_ZNSt12__basic_fileIcE8xsputn_2EPKclS2_l
libimhex.so:_ZNSt12__basic_fileIcE9showmanycEv
libimhex.so:_ZNSt12__basic_fileIcEC1EP15pthread_mutex_t
libimhex.so:_ZNSt12__basic_fileIcEC2EP15pthread_mutex_t
libimhex.so:_ZNSt12__basic_fileIcED1Ev
libimhex.so:_ZNSt12__basic_fileIcED2Ev
libimhex.so:_ZNSt12__cow_stringC1EOS_
libimhex.so:_ZNSt12__cow_stringC1EPKcm
libimhex.so:_ZNSt12__cow_stringC1ERKNSt7__cxx1112basic_stringIcSt11char_traitsIcESaIcEEE
libimhex.so:_ZNSt12__cow_stringC1ERKS_
libimhex.so:_ZNSt12__cow_stringC1ERKSs
libimhex.so:_ZNSt12__cow_stringC1Ev
libimhex.so:_ZNSt12__cow_stringC2EOS_
libimhex.so:_ZNSt12__cow_stringC2EPKcm
libimhex.so:_ZNSt12__cow_stringC2ERKNSt7__cxx1112basic_stringIcSt11char_traitsIcESaIcEEE
libimhex.so:_ZNSt12__cow_stringC2ERKS_
libimhex.so:_ZNSt12__cow_stringC2ERKSs
libimhex.so:_ZNSt12__cow_stringC2Ev
libimhex.so:_ZNSt12__cow_stringD1Ev
libimhex.so:_ZNSt12__cow_stringD2Ev
libimhex.so:_ZNSt12__cow_stringaSEOS_
libimhex.so:_ZNSt12__cow_stringaSERKS_
libimhex.so:_ZNSt12__sso_stringC1EOS_
libimhex.so:_ZNSt12__sso_stringC1EPKcm
libimhex.so:_ZNSt12__sso_stringC1ERKNSt7__cxx1112basic_stringIcSt11char_traitsIcESaIcEEE
libimhex.so:_ZNSt12__sso_stringC1ERKS_
libimhex.so:_ZNSt12__sso_stringC1ERKSs
libimhex.so:_ZNSt12__sso_stringC1Ev
libimhex.so:_ZNSt12__sso_stringC2EOS_
libimhex.so:_ZNSt12__sso_stringC2EPKcm
libimhex.so:_ZNSt12__sso_stringC2ERKNSt7__cxx1112basic_stringIcSt11char_traitsIcESaIcEEE
libimhex.so:_ZNSt12__sso_stringC2ERKS_
libimhex.so:_ZNSt12__sso_stringC2ERKSs
libimhex.so:_ZNSt12__sso_stringC2Ev
libimhex.so:_ZNSt12__sso_stringD1Ev
libimhex.so:_ZNSt12__sso_stringD2Ev
libimhex.so:_ZNSt12__sso_stringaSEOS_
libimhex.so:_ZNSt12__sso_stringaSERKS_
libimhex.so:_ZNSt12ctype_bynameIcEC1EPKcm
libimhex.so:_ZNSt12ctype_bynameIcEC1ERKNSt7__cxx1112basic_stringIcSt11char_traitsIcESaIcEEEm
libimhex.so:_ZNSt12ctype_bynameIcEC1ERKSsm
libimhex.so:_ZNSt12ctype_bynameIcEC2EPKcm
libimhex.so:_ZNSt12ctype_bynameIcEC2ERKNSt7__cxx1112basic_stringIcSt11char_traitsIcESaIcEEEm
libimhex.so:_ZNSt12ctype_bynameIcEC2ERKSsm
libimhex.so:_ZNSt12ctype_bynameIcED0Ev
libimhex.so:_ZNSt12ctype_bynameIcED1Ev
libimhex.so:_ZNSt12ctype_bynameIcED2Ev
libimhex.so:_ZNSt12ctype_bynameIwEC1EPKcm
libimhex.so:_ZNSt12ctype_bynameIwEC1ERKNSt7__cxx1112basic_stringIcSt11char_traitsIcESaIcEEEm
libimhex.so:_ZNSt12ctype_bynameIwEC1ERKSsm
libimhex.so:_ZNSt12ctype_bynameIwEC2EPKcm
libimhex.so:_ZNSt12ctype_bynameIwEC2ERKNSt7__cxx1112basic_stringIcSt11char_traitsIcESaIcEEEm
libimhex.so:_ZNSt12ctype_bynameIwEC2ERKSsm
libimhex.so:_ZNSt12ctype_bynameIwED0Ev
libimhex.so:_ZNSt12ctype_bynameIwED1Ev
libimhex.so:_ZNSt12ctype_bynameIwED2Ev
libimhex.so:_ZNSt12domain_errorC1EPKc
libimhex.so:_ZNSt12domain_errorC1ERKNSt7__cxx1112basic_stringIcSt11char_traitsIcESaIcEEE
libimhex.so:_ZNSt12domain_errorC1ERKSs
libimhex.so:_ZNSt12domain_errorC2EPKc
libimhex.so:_ZNSt12domain_errorC2ERKNSt7__cxx1112basic_stringIcSt11char_traitsIcESaIcEEE
libimhex.so:_ZNSt12domain_errorC2ERKSs
libimhex.so:_ZNSt12domain_errorD0Ev
libimhex.so:_ZNSt12domain_errorD1Ev
libimhex.so:_ZNSt12domain_errorD2Ev
libimhex.so:_ZNSt12length_errorC1EPKc
libimhex.so:_ZNSt12length_errorC1ERKNSt7__cxx1112basic_stringIcSt11char_traitsIcESaIcEEE
libimhex.so:_ZNSt12length_errorC1ERKSs
libimhex.so:_ZNSt12length_errorC2EPKc
libimhex.so:_ZNSt12length_errorC2ERKNSt7__cxx1112basic_stringIcSt11char_traitsIcESaIcEEE
libimhex.so:_ZNSt12length_errorC2ERKSs
libimhex.so:_ZNSt12length_errorD0Ev
libimhex.so:_ZNSt12length_errorD1Ev
libimhex.so:_ZNSt12length_errorD2Ev
libimhex.so:_ZNSt12out_of_rangeC1EPKc
libimhex.so:_ZNSt12out_of_rangeC1ERKNSt7__cxx1112basic_stringIcSt11char_traitsIcESaIcEEE
libimhex.so:_ZNSt12out_of_rangeC1ERKSs
libimhex.so:_ZNSt12out_of_rangeC2EPKc
libimhex.so:_ZNSt12out_of_rangeC2ERKNSt7__cxx1112basic_stringIcSt11char_traitsIcESaIcEEE
libimhex.so:_ZNSt12out_of_rangeC2ERKSs
libimhex.so:_ZNSt12out_of_rangeD0Ev
libimhex.so:_ZNSt12out_of_rangeD1Ev
libimhex.so:_ZNSt12out_of_rangeD2Ev
libimhex.so:_ZNSt12system_errorD0Ev
libimhex.so:_ZNSt12system_errorD1Ev
libimhex.so:_ZNSt12system_errorD2Ev
libimhex.so:_ZNSt13bad_exceptionD0Ev
libimhex.so:_ZNSt13bad_exceptionD1Ev
libimhex.so:_ZNSt13bad_exceptionD2Ev
libimhex.so:_ZNSt13basic_istreamIwSt11char_traitsIwEE6ignoreEl
libimhex.so:_ZNSt13basic_istreamIwSt11char_traitsIwEE6ignoreElj
libimhex.so:_ZNSt13basic_istreamIwSt11char_traitsIwEE7getlineEPwlw
libimhex.so:_ZNSt13random_device14_M_init_pretr1ERKNSt7__cxx1112basic_stringIcSt11char_traitsIcESaIcEEE
libimhex.so:_ZNSt13random_device14_M_init_pretr1ERKSs
libimhex.so:_ZNSt13random_device16_M_getval_pretr1Ev
libimhex.so:_ZNSt13random_device7_M_finiEv
libimhex.so:_ZNSt13random_device7_M_initEPKcm
libimhex.so:_ZNSt13random_device7_M_initERKNSt7__cxx1112basic_stringIcSt11char_traitsIcESaIcEEE
libimhex.so:_ZNSt13random_device7_M_initERKSs
libimhex.so:_ZNSt13random_device9_M_getvalEv
libimhex.so:_ZNSt13runtime_errorC1EOS_
libimhex.so:_ZNSt13runtime_errorC1EPKc
libimhex.so:_ZNSt13runtime_errorC1ERKNSt7__cxx1112basic_stringIcSt11char_traitsIcESaIcEEE
libimhex.so:_ZNSt13runtime_errorC1ERKS_
libimhex.so:_ZNSt13runtime_errorC1ERKSs
libimhex.so:_ZNSt13runtime_errorC2EOS_
libimhex.so:_ZNSt13runtime_errorC2EPKc
libimhex.so:_ZNSt13runtime_errorC2ERKNSt7__cxx1112basic_stringIcSt11char_traitsIcESaIcEEE
libimhex.so:_ZNSt13runtime_errorC2ERKS_
libimhex.so:_ZNSt13runtime_errorC2ERKSs
libimhex.so:_ZNSt13runtime_errorD0Ev
libimhex.so:_ZNSt13runtime_errorD1Ev
libimhex.so:_ZNSt13runtime_errorD2Ev
libimhex.so:_ZNSt13runtime_erroraSEOS_
libimhex.so:_ZNSt13runtime_erroraSERKS_
libimhex.so:_ZNSt14overflow_errorC1EPKc
libimhex.so:_ZNSt14overflow_errorC1ERKNSt7__cxx1112basic_stringIcSt11char_traitsIcESaIcEEE
libimhex.so:_ZNSt14overflow_errorC1ERKSs
libimhex.so:_ZNSt14overflow_errorC2EPKc
libimhex.so:_ZNSt14overflow_errorC2ERKNSt7__cxx1112basic_stringIcSt11char_traitsIcESaIcEEE
libimhex.so:_ZNSt14overflow_errorC2ERKSs
libimhex.so:_ZNSt14overflow_errorD0Ev
libimhex.so:_ZNSt14overflow_errorD1Ev
libimhex.so:_ZNSt14overflow_errorD2Ev
libimhex.so:_ZNSt15underflow_errorC1EPKc
libimhex.so:_ZNSt15underflow_errorC1ERKNSt7__cxx1112basic_stringIcSt11char_traitsIcESaIcEEE
libimhex.so:_ZNSt15underflow_errorC1ERKSs
libimhex.so:_ZNSt15underflow_errorC2EPKc
libimhex.so:_ZNSt15underflow_errorC2ERKNSt7__cxx1112basic_stringIcSt11char_traitsIcESaIcEEE
libimhex.so:_ZNSt15underflow_errorC2ERKSs
libimhex.so:_ZNSt15underflow_errorD0Ev
libimhex.so:_ZNSt15underflow_errorD1Ev
libimhex.so:_ZNSt15underflow_errorD2Ev
libimhex.so:_ZNSt16invalid_argumentC1EPKc
libimhex.so:_ZNSt16invalid_argumentC1ERKNSt7__cxx1112basic_stringIcSt11char_traitsIcESaIcEEE
libimhex.so:_ZNSt16invalid_argumentC1ERKSs
libimhex.so:_ZNSt16invalid_argumentC2EPKc
libimhex.so:_ZNSt16invalid_argumentC2ERKNSt7__cxx1112basic_stringIcSt11char_traitsIcESaIcEEE
libimhex.so:_ZNSt16invalid_argumentC2ERKSs
libimhex.so:_ZNSt16invalid_argumentD0Ev
libimhex.so:_ZNSt16invalid_argumentD1Ev
libimhex.so:_ZNSt16invalid_argumentD2Ev
libimhex.so:_ZNSt17bad_function_callD0Ev
libimhex.so:_ZNSt17bad_function_callD1Ev
libimhex.so:_ZNSt17bad_function_callD2Ev
libimhex.so:_ZNSt19__codecvt_utf8_baseIDiED0Ev
libimhex.so:_ZNSt19__codecvt_utf8_baseIDiED1Ev
libimhex.so:_ZNSt19__codecvt_utf8_baseIDiED2Ev
libimhex.so:_ZNSt19__codecvt_utf8_baseIDsED0Ev
libimhex.so:_ZNSt19__codecvt_utf8_baseIDsED1Ev
libimhex.so:_ZNSt19__codecvt_utf8_baseIDsED2Ev
libimhex.so:_ZNSt19__codecvt_utf8_baseIwED0Ev
libimhex.so:_ZNSt19__codecvt_utf8_baseIwED1Ev
libimhex.so:_ZNSt19__codecvt_utf8_baseIwED2Ev
libimhex.so:_ZNSt19__iosfail_type_infoD0Ev
libimhex.so:_ZNSt19__iosfail_type_infoD1Ev
libimhex.so:_ZNSt19__iosfail_type_infoD2Ev
libimhex.so:_ZNSt20__codecvt_utf16_baseIDiED0Ev
libimhex.so:_ZNSt20__codecvt_utf16_baseIDiED1Ev
libimhex.so:_ZNSt20__codecvt_utf16_baseIDiED2Ev
libimhex.so:_ZNSt20__codecvt_utf16_baseIDsED0Ev
libimhex.so:_ZNSt20__codecvt_utf16_baseIDsED1Ev
libimhex.so:_ZNSt20__codecvt_utf16_baseIDsED2Ev
libimhex.so:_ZNSt20__codecvt_utf16_baseIwED0Ev
libimhex.so:_ZNSt20__codecvt_utf16_baseIwED1Ev
libimhex.so:_ZNSt20__codecvt_utf16_baseIwED2Ev
libimhex.so:_ZNSt20bad_array_new_lengthD0Ev
libimhex.so:_ZNSt20bad_array_new_lengthD1Ev
libimhex.so:_ZNSt20bad_array_new_lengthD2Ev
libimhex.so:_ZNSt25__codecvt_utf8_utf16_baseIDiED0Ev
libimhex.so:_ZNSt25__codecvt_utf8_utf16_baseIDiED1Ev
libimhex.so:_ZNSt25__codecvt_utf8_utf16_baseIDiED2Ev
libimhex.so:_ZNSt25__codecvt_utf8_utf16_baseIDsED0Ev
libimhex.so:_ZNSt25__codecvt_utf8_utf16_baseIDsED1Ev
libimhex.so:_ZNSt25__codecvt_utf8_utf16_baseIDsED2Ev
libimhex.so:_ZNSt25__codecvt_utf8_utf16_baseIwED0Ev
libimhex.so:_ZNSt25__codecvt_utf8_utf16_baseIwED1Ev
libimhex.so:_ZNSt25__codecvt_utf8_utf16_baseIwED2Ev
libimhex.so:_ZNSt3_V214error_categoryD0Ev
libimhex.so:_ZNSt3_V214error_categoryD1Ev
libimhex.so:_ZNSt3_V214error_categoryD2Ev
libimhex.so:_ZNSt3_V215system_categoryEv
libimhex.so:_ZNSt3_V216generic_categoryEv
libimhex.so:_ZNSt5ctypeIcE13classic_tableEv
libimhex.so:_ZNSt5ctypeIcEC1EP15__locale_structPKtbm
libimhex.so:_ZNSt5ctypeIcEC1EPKtbm
libimhex.so:_ZNSt5ctypeIcEC2EP15__locale_structPKtbm
libimhex.so:_ZNSt5ctypeIcEC2EPKtbm
libimhex.so:_ZNSt5ctypeIcED0Ev
libimhex.so:_ZNSt5ctypeIcED1Ev
libimhex.so:_ZNSt5ctypeIcED2Ev
libimhex.so:_ZNSt5ctypeIwE19_M_initialize_ctypeEv
libimhex.so:_ZNSt5ctypeIwEC1EP15__locale_structm
libimhex.so:_ZNSt5ctypeIwEC1Em
libimhex.so:_ZNSt5ctypeIwEC2EP15__locale_structm
libimhex.so:_ZNSt5ctypeIwEC2Em
libimhex.so:_ZNSt5ctypeIwED0Ev
libimhex.so:_ZNSt5ctypeIwED1Ev
libimhex.so:_ZNSt5ctypeIwED2Ev
libimhex.so:_ZNSt6locale13_S_initializeEv
libimhex.so:_ZNSt6locale18_S_initialize_onceEv
libimhex.so:_ZNSt6locale21_S_normalize_categoryEi
libimhex.so:_ZNSt6locale5_Impl13_M_init_extraEPPNS_5facetE
libimhex.so:_ZNSt6locale5_Impl13_M_init_extraEPvS1_PKcS3_
libimhex.so:_ZNSt6locale5_Impl16_M_install_cacheEPKNS_5facetEm
libimhex.so:_ZNSt6locale5_Impl16_M_install_facetEPKNS_2idEPKNS_5facetE
libimhex.so:_ZNSt6locale5_Impl16_M_replace_facetEPKS0_PKNS_2idE
libimhex.so:_ZNSt6locale5_Impl19_M_replace_categoryEPKS0_PKPKNS_2idE
libimhex.so:_ZNSt6locale5_ImplC1ERKS0_m
libimhex.so:_ZNSt6locale5_ImplC1Em
libimhex.so:_ZNSt6locale5_ImplC2ERKS0_m
libimhex.so:_ZNSt6locale5_ImplC2Em
libimhex.so:_ZNSt6locale5_ImplD1Ev
libimhex.so:_ZNSt6locale5_ImplD2Ev
libimhex.so:_ZNSt6locale5facet13_S_get_c_nameEv
libimhex.so:_ZNSt6locale5facet15_S_get_c_localeEv
libimhex.so:_ZNSt6locale5facet17_S_clone_c_localeERP15__locale_struct
libimhex.so:_ZNSt6locale5facet18_S_create_c_localeERP15__locale_structPKcS2_
libimhex.so:_ZNSt6locale5facet18_S_initialize_onceEv
libimhex.so:_ZNSt6locale5facet19_S_destroy_c_localeERP15__locale_struct
libimhex.so:_ZNSt6locale5facet20_S_lc_ctype_c_localeEP15__locale_structPKc
libimhex.so:_ZNSt6locale5facetD0Ev
libimhex.so:_ZNSt6locale5facetD1Ev
libimhex.so:_ZNSt6locale5facetD2Ev
libimhex.so:_ZNSt6locale6globalERKS_
libimhex.so:_ZNSt6locale7classicEv
libimhex.so:_ZNSt6localeC1EPNS_5_ImplE
libimhex.so:_ZNSt6localeC1ERKS_
libimhex.so:_ZNSt6localeC1Ev
libimhex.so:_ZNSt6localeC2EPNS_5_ImplE
libimhex.so:_ZNSt6localeC2ERKS_
libimhex.so:_ZNSt6localeC2Ev
libimhex.so:_ZNSt6localeD1Ev
libimhex.so:_ZNSt6localeD2Ev
libimhex.so:_ZNSt6localeaSERKS_
libimhex.so:_ZNSt7__cxx1110moneypunctIcLb0EE24_M_initialize_moneypunctEP15__locale_structPKc
libimhex.so:_ZNSt7__cxx1110moneypunctIcLb0EED0Ev
libimhex.so:_ZNSt7__cxx1110moneypunctIcLb0EED1Ev
libimhex.so:_ZNSt7__cxx1110moneypunctIcLb0EED2Ev
libimhex.so:_ZNSt7__cxx1110moneypunctIcLb1EE24_M_initialize_moneypunctEP15__locale_structPKc
libimhex.so:_ZNSt7__cxx1110moneypunctIcLb1EED0Ev
libimhex.so:_ZNSt7__cxx1110moneypunctIcLb1EED1Ev
libimhex.so:_ZNSt7__cxx1110moneypunctIcLb1EED2Ev
libimhex.so:_ZNSt7__cxx1110moneypunctIwLb0EE24_M_initialize_moneypunctEP15__locale_structPKc
libimhex.so:_ZNSt7__cxx1110moneypunctIwLb0EED0Ev
libimhex.so:_ZNSt7__cxx1110moneypunctIwLb0EED1Ev
libimhex.so:_ZNSt7__cxx1110moneypunctIwLb0EED2Ev
libimhex.so:_ZNSt7__cxx1110moneypunctIwLb1EE24_M_initialize_moneypunctEP15__locale_structPKc
libimhex.so:_ZNSt7__cxx1110moneypunctIwLb1EED0Ev
libimhex.so:_ZNSt7__cxx1110moneypunctIwLb1EED1Ev
libimhex.so:_ZNSt7__cxx1110moneypunctIwLb1EED2Ev
libimhex.so:_ZNSt7__cxx1112basic_stringIcSt11char_traitsIcESaIcEE10_M_replaceEmmPKcm
libimhex.so:_ZNSt7__cxx1112basic_stringIcSt11char_traitsIcESaIcEE12_M_constructEmc
libimhex.so:_ZNSt7__cxx1112basic_stringIcSt11char_traitsIcESaIcEE12_M_constructIPKcEEvT_S8_St20forward_iterator_tag
libimhex.so:_ZNSt7__cxx1112basic_stringIcSt11char_traitsIcESaIcEE12_M_constructIPcEEvT_S7_St20forward_iterator_tag
libimhex.so:_ZNSt7__cxx1112basic_stringIcSt11char_traitsIcESaIcEE14_M_replace_auxEmmmc
libimhex.so:_ZNSt7__cxx1112basic_stringIcSt11char_traitsIcESaIcEE4swapERS4_
libimhex.so:_ZNSt7__cxx1112basic_stringIcSt11char_traitsIcESaIcEE6resizeEmc
libimhex.so:_ZNSt7__cxx1112basic_stringIcSt11char_traitsIcESaIcEE7reserveEm
libimhex.so:_ZNSt7__cxx1112basic_stringIcSt11char_traitsIcESaIcEE8_M_eraseEmm
libimhex.so:_ZNSt7__cxx1112basic_stringIcSt11char_traitsIcESaIcEE9_M_appendEPKcm
libimhex.so:_ZNSt7__cxx1112basic_stringIcSt11char_traitsIcESaIcEE9_M_assignERKS4_
libimhex.so:_ZNSt7__cxx1112basic_stringIcSt11char_traitsIcESaIcEE9_M_createERmm
libimhex.so:_ZNSt7__cxx1112basic_stringIcSt11char_traitsIcESaIcEE9_M_mutateEmmPKcm
libimhex.so:_ZNSt7__cxx118numpunctIcE22_M_initialize_numpunctEP15__locale_struct
libimhex.so:_ZNSt7__cxx118numpunctIcED0Ev
libimhex.so:_ZNSt7__cxx118numpunctIcED1Ev
libimhex.so:_ZNSt7__cxx118numpunctIcED2Ev
libimhex.so:_ZNSt7__cxx118numpunctIwE22_M_initialize_numpunctEP15__locale_struct
libimhex.so:_ZNSt7__cxx118numpunctIwED0Ev
libimhex.so:_ZNSt7__cxx118numpunctIwED1Ev
libimhex.so:_ZNSt7__cxx118numpunctIwED2Ev
libimhex.so:_ZNSt7codecvtIDiDu11__mbstate_tED0Ev
libimhex.so:_ZNSt7codecvtIDiDu11__mbstate_tED1Ev
libimhex.so:_ZNSt7codecvtIDiDu11__mbstate_tED2Ev
libimhex.so:_ZNSt7codecvtIDic11__mbstate_tED0Ev
libimhex.so:_ZNSt7codecvtIDic11__mbstate_tED1Ev
libimhex.so:_ZNSt7codecvtIDic11__mbstate_tED2Ev
libimhex.so:_ZNSt7codecvtIDsDu11__mbstate_tED0Ev
libimhex.so:_ZNSt7codecvtIDsDu11__mbstate_tED1Ev
libimhex.so:_ZNSt7codecvtIDsDu11__mbstate_tED2Ev
libimhex.so:_ZNSt7codecvtIDsc11__mbstate_tED0Ev
libimhex.so:_ZNSt7codecvtIDsc11__mbstate_tED1Ev
libimhex.so:_ZNSt7codecvtIDsc11__mbstate_tED2Ev
libimhex.so:_ZNSt7codecvtIcc11__mbstate_tEC1EP15__locale_structm
libimhex.so:_ZNSt7codecvtIcc11__mbstate_tEC1Em
libimhex.so:_ZNSt7codecvtIcc11__mbstate_tEC2EP15__locale_structm
libimhex.so:_ZNSt7codecvtIcc11__mbstate_tEC2Em
libimhex.so:_ZNSt7codecvtIcc11__mbstate_tED0Ev
libimhex.so:_ZNSt7codecvtIcc11__mbstate_tED1Ev
libimhex.so:_ZNSt7codecvtIcc11__mbstate_tED2Ev
libimhex.so:_ZNSt7codecvtIwc11__mbstate_tEC1EP15__locale_structm
libimhex.so:_ZNSt7codecvtIwc11__mbstate_tEC1Em
libimhex.so:_ZNSt7codecvtIwc11__mbstate_tEC2EP15__locale_structm
libimhex.so:_ZNSt7codecvtIwc11__mbstate_tEC2Em
libimhex.so:_ZNSt7codecvtIwc11__mbstate_tED0Ev
libimhex.so:_ZNSt7codecvtIwc11__mbstate_tED1Ev
libimhex.so:_ZNSt7codecvtIwc11__mbstate_tED2Ev
libimhex.so:_ZNSt8Catalogs6_M_addEPKcSt6locale
libimhex.so:_ZNSt8Catalogs8_M_eraseEi
libimhex.so:_ZNSt8CatalogsD1Ev
libimhex.so:_ZNSt8CatalogsD2Ev
libimhex.so:_ZNSt8__detail15_List_node_base10_M_reverseEv
libimhex.so:_ZNSt8__detail15_List_node_base11_M_transferEPS0_S1_
libimhex.so:_ZNSt8__detail15_List_node_base4swapERS0_S1_
libimhex.so:_ZNSt8__detail15_List_node_base7_M_hookEPS0_
libimhex.so:_ZNSt8__detail15_List_node_base9_M_unhookEv
libimhex.so:_ZNSt8bad_castD0Ev
libimhex.so:_ZNSt8bad_castD1Ev
libimhex.so:_ZNSt8bad_castD2Ev
libimhex.so:_ZNSt8ios_base13_M_grow_wordsEib
libimhex.so:_ZNSt8ios_base17_M_call_callbacksENS_5eventE
libimhex.so:_ZNSt8ios_base17register_callbackEPFvNS_5eventERS_iEi
libimhex.so:_ZNSt8ios_base20_M_dispose_callbacksEv
libimhex.so:_ZNSt8ios_base5imbueERKSt6locale
libimhex.so:_ZNSt8ios_base6xallocEv
libimhex.so:_ZNSt8ios_base7_M_initEv
libimhex.so:_ZNSt8ios_base7_M_moveERS_
libimhex.so:_ZNSt8ios_base7_M_swapERS_
libimhex.so:_ZNSt8ios_base7failureB5cxx11C1EPKcRKSt10error_code
libimhex.so:_ZNSt8ios_base7failureB5cxx11C1ERKNSt7__cxx1112basic_stringIcSt11char_traitsIcESaIcEEE
libimhex.so:_ZNSt8ios_base7failureB5cxx11C1ERKNSt7__cxx1112basic_stringIcSt11char_traitsIcESaIcEEERKSt10error_code
libimhex.so:_ZNSt8ios_base7failureB5cxx11C2EPKcRKSt10error_code
libimhex.so:_ZNSt8ios_base7failureB5cxx11C2ERKNSt7__cxx1112basic_stringIcSt11char_traitsIcESaIcEEE
libimhex.so:_ZNSt8ios_base7failureB5cxx11C2ERKNSt7__cxx1112basic_stringIcSt11char_traitsIcESaIcEEERKSt10error_code
libimhex.so:_ZNSt8ios_base7failureB5cxx11D0Ev
libimhex.so:_ZNSt8ios_base7failureB5cxx11D1Ev
libimhex.so:_ZNSt8ios_base7failureB5cxx11D2Ev
libimhex.so:_ZNSt8ios_base7failureC1ERKSs
libimhex.so:_ZNSt8ios_base7failureC2ERKSs
libimhex.so:_ZNSt8ios_base7failureD0Ev
libimhex.so:_ZNSt8ios_base7failureD1Ev
libimhex.so:_ZNSt8ios_base7failureD2Ev
libimhex.so:_ZNSt8ios_baseC1Ev
libimhex.so:_ZNSt8ios_baseC2Ev
libimhex.so:_ZNSt8ios_baseD0Ev
libimhex.so:_ZNSt8ios_baseD1Ev
libimhex.so:_ZNSt8ios_baseD2Ev
libimhex.so:_ZNSt8numpunctIcE22_M_initialize_numpunctEP15__locale_struct
libimhex.so:_ZNSt8numpunctIcED0Ev
libimhex.so:_ZNSt8numpunctIcED1Ev
libimhex.so:_ZNSt8numpunctIcED2Ev
libimhex.so:_ZNSt8numpunctIwE22_M_initialize_numpunctEP15__locale_struct
libimhex.so:_ZNSt8numpunctIwED0Ev
libimhex.so:_ZNSt8numpunctIwED1Ev
libimhex.so:_ZNSt8numpunctIwED2Ev
libimhex.so:_ZNSt9bad_allocD0Ev
libimhex.so:_ZNSt9bad_allocD1Ev
libimhex.so:_ZNSt9bad_allocD2Ev
libimhex.so:_ZNSt9exceptionD0Ev
libimhex.so:_ZNSt9exceptionD1Ev
libimhex.so:_ZNSt9exceptionD2Ev
libimhex.so:_ZNSt9type_infoD0Ev
libimhex.so:_ZNSt9type_infoD1Ev
libimhex.so:_ZNSt9type_infoD2Ev
libimhex.so:_ZSt10unexpectedv
libimhex.so:_ZSt11_Hash_bytesPKvmm
libimhex.so:_ZSt12get_catalogsv
libimhex.so:_ZSt13get_terminatev
libimhex.so:_ZSt13set_terminatePFvvE
libimhex.so:_ZSt14__convert_to_vIdEvPKcRT_RSt12_Ios_IostateRKP15__locale_struct
libimhex.so:_ZSt14__convert_to_vIeEvPKcRT_RSt12_Ios_IostateRKP15__locale_struct
libimhex.so:_ZSt14__convert_to_vIfEvPKcRT_RSt12_Ios_IostateRKP15__locale_struct
libimhex.so:_ZSt14get_unexpectedv
libimhex.so:_ZSt14set_unexpectedPFvvE
libimhex.so:_ZSt15_Fnv_hash_bytesPKvmm
libimhex.so:_ZSt15get_new_handlerv
libimhex.so:_ZSt15set_new_handlerPFvvE
libimhex.so:_ZSt16__throw_bad_castv
libimhex.so:_ZSt17__istream_extractRSiPcl
libimhex.so:_ZSt17__throw_bad_allocv
libimhex.so:_ZSt17__verify_groupingPKcmRKNSt7__cxx1112basic_stringIcSt11char_traitsIcESaIcEEE
libimhex.so:_ZSt17__verify_groupingPKcmRKSs
libimhex.so:_ZSt17iostream_categoryv
libimhex.so:_ZSt18_Rb_tree_decrementPKSt18_Rb_tree_node_base
libimhex.so:_ZSt18_Rb_tree_decrementPSt18_Rb_tree_node_base
libimhex.so:_ZSt18_Rb_tree_incrementPKSt18_Rb_tree_node_base
libimhex.so:_ZSt18_Rb_tree_incrementPSt18_Rb_tree_node_base
libimhex.so:_ZSt18__throw_bad_typeidv
libimhex.so:_ZSt18uncaught_exceptionv
libimhex.so:_ZSt19__throw_ios_failurePKc
libimhex.so:_ZSt19__throw_ios_failurePKci
libimhex.so:_ZSt19__throw_logic_errorPKc
libimhex.so:_ZSt19__throw_range_errorPKc
libimhex.so:_ZSt19uncaught_exceptionsv
libimhex.so:_ZSt20_Rb_tree_black_countPKSt18_Rb_tree_node_baseS1_
libimhex.so:_ZSt20_Rb_tree_rotate_leftPSt18_Rb_tree_node_baseRS0_
libimhex.so:_ZSt20__throw_domain_errorPKc
libimhex.so:_ZSt20__throw_length_errorPKc
libimhex.so:_ZSt20__throw_out_of_rangePKc
libimhex.so:_ZSt20__throw_system_errori
libimhex.so:_ZSt21_Rb_tree_rotate_rightPSt18_Rb_tree_node_baseRS0_
libimhex.so:_ZSt21__copy_streambufs_eofIcSt11char_traitsIcEElPSt15basic_streambufIT_T0_ES6_Rb
libimhex.so:_ZSt21__copy_streambufs_eofIwSt11char_traitsIwEElPSt15basic_streambufIT_T0_ES6_Rb
libimhex.so:_ZSt21__destroy_ios_failurePv
libimhex.so:_ZSt21__throw_bad_exceptionv
libimhex.so:_ZSt21__throw_runtime_errorPKc
libimhex.so:_ZSt22__throw_overflow_errorPKc
libimhex.so:_ZSt22__verify_grouping_implPKcmS0_m
libimhex.so:_ZSt23__construct_ios_failurePvPKc
libimhex.so:_ZSt23__throw_underflow_errorPKc
libimhex.so:_ZSt24__is_ios_failure_handlerPKN10__cxxabiv117__class_type_infoE
libimhex.so:_ZSt24__narrow_multibyte_charsPKcP15__locale_struct
libimhex.so:_ZSt24__throw_invalid_argumentPKc
libimhex.so:_ZSt24__throw_out_of_range_fmtPKcz
libimhex.so:_ZSt25__throw_bad_function_callv
libimhex.so:_ZSt28_Rb_tree_rebalance_for_erasePSt18_Rb_tree_node_baseRS_
libimhex.so:_ZSt28__throw_bad_array_new_lengthv
libimhex.so:_ZSt29_Rb_tree_insert_and_rebalancebPSt18_Rb_tree_node_baseS0_RS_
libimhex.so:_ZSt9terminatev
libimhex.so:_ZStplIcSt11char_traitsIcESaIcEENSt7__cxx1112basic_stringIT_T0_T1_EEPKS5_RKS8_
libimhex.so:_ZdaPv
libimhex.so:_ZdlPv
libimhex.so:_ZdlPvm
libimhex.so:_Znam
libimhex.so:_ZnamRKSt9nothrow_t
libimhex.so:_Znwm
libimhex.so:__cxa_allocate_dependent_exception
libimhex.so:__cxa_allocate_exception
libimhex.so:__cxa_bad_cast
libimhex.so:__cxa_bad_typeid
libimhex.so:__cxa_begin_catch
libimhex.so:__cxa_call_terminate
libimhex.so:__cxa_call_unexpected
libimhex.so:__cxa_current_exception_type
libimhex.so:__cxa_demangle
libimhex.so:__cxa_end_catch
libimhex.so:__cxa_free_dependent_exception
libimhex.so:__cxa_free_exception
libimhex.so:__cxa_get_exception_ptr
libimhex.so:__cxa_get_globals
libimhex.so:__cxa_get_globals_fast
libimhex.so:__cxa_guard_abort
libimhex.so:__cxa_guard_acquire
libimhex.so:__cxa_guard_release
libimhex.so:__cxa_init_primary_exception
libimhex.so:__cxa_rethrow
libimhex.so:__cxa_throw
libimhex.so:__cxa_throw_bad_array_new_length
libimhex.so:__dynamic_cast
libimhex.so:__gcclibcxx_demangle_callback
libimhex.so:__gxx_personality_v0
